(dp1
S'fawn'
p2
S'ubuntu_7.04'
p3
sVmdraid
p4
S'dmraid'
p5
sVvncservers
p6
S'vnc4server'
p7
sVlamp-server^
p8
S'tasksel'
p9
sVaegis
p10
S'aegis'
p11
sVmirage
p12
S'mirage'
p13
sVsystem-config-samba
p14
S'system-config-audit'
p15
sVuif2iso
p16
S'uif2iso'
p17
sVlumix
p18
S'aumix'
p19
sVunrar-free
p20
S'unrar'
p21
sS'dell'
p22
S'dell'
p23
sVhibernating
p24
S'hibernate'
p25
sVcoded1
p26
Vcoded
p27
sVfingers*
p28
S'finger'
p29
sVzoneminder
p30
S'zoneminder'
p31
sV/etc/default/grub
p32
Vcfg
p33
sS'macaddress'
p34
S'macaddress'
p35
sVia32-libs-gtk
p36
S'ia32-libs'
p37
sVsynergy
p38
S'synergy'
p39
sVaircrack-ng
p40
S'aircrack-ng'
p41
sVpulse
p42
S'pulseaudio'
p43
sVgnome-power-manager
p44
S'gnome'
p45
sVkid3
p46
S'kid3'
p47
sVbittorrent
p48
S'bittorrent'
p49
sVsystemsettings
p50
S'systemsettings'
p51
sVhttp://localhost:631/
p52
S'cups'
p53
sVfingers
p54
g29
sVxchm
p55
S'xchm'
p56
sVirrsi
p57
S'irssi'
p58
sVwidget
p59
g59
sVvnc-server
p60
S'vnc-java'
p61
sVlinux-source
p62
S'linux-source'
p63
sVcommand.com
p64
g64
sVgaleon
p65
S'epiphany'
p66
sS'avanade'
p67
S'avanade'
p68
sVusb-creator
p69
S'unetbootin'
p70
sVextened
p71
Vextended
p72
sVsubstance
p73
S'substance'
p74
sVpmount
p75
S'pmount'
p76
sVlilypond
p77
S'lilypond'
p78
sVproftpd-basic
p79
S'proftpd'
p80
sS'unii'
p81
S'unii'
p82
sVjockey-kde
p83
S'jockey-common'
p84
sVnormalize-audio
p85
S'normalize-audio'
p86
sVunit
p87
S'units'
p88
sVtsclient
p89
S'xrdp'
p90
sVmp3check
p91
S'mp3check'
p92
sVcruft
p93
S'cruft'
p94
sVemmulator
p95
Vemulator
p96
sVlive-cd
p97
Vlivecd
p98
sVyahoo
p99
S'amsn'
p100
sS'5.10'
p101
S'ubuntu_5.10'
p102
sVacpidump
p103
S'acpidump'
p104
sVaddon
p105
Vadd-on
p106
sVgpac
p107
S'gpac'
p108
sVifenslave
p109
S'ifenslave'
p110
sVpidgeon
p111
S'pidgin'
p112
sVsound-converter
p113
S'soundconverter'
p114
sVkdelibs5-data
p115
S'kdelibs-bin'
p116
sVsmtp
p117
S'esmtp'
p118
sVvi/vim
p119
S'vim'
p120
sS'travel'
p121
g121
sVsmartdimmer
p122
S'smartdimmer'
p123
sVactionscript
p124
g124
sVscrotwm
p125
S'scrotwm'
p126
sVfbdesk
p127
S'fbdesk'
p128
sVtulip
p129
S'tulip'
p130
sVbeeping
p131
S'beep'
p132
sVnikto
p133
S'nikto'
p134
sS'wine'
p135
g135
sVlinux-image-server
p136
S'linux-image'
p137
sVazereus
p138
S'azureus'
p139
sVkvim
p140
g120
sVmakefiles
p141
S'makefile'
p142
sVuuid
p143
S'uuid'
p144
sVcoreutils
p145
S'coreutils'
p146
sVwhiptail
p147
S'whiptail'
p148
sVwalex
p149
S'alex'
p150
sVjunior-typing
p151
S'junior-arcade'
p152
sVlibssl-dev
p153
S'libssl-dev'
p154
sVupdate-manger
p155
S'update-inetd'
p156
sVexteneded
p157
g72
sVaiglx
p158
g158
sVdebut
p159
Vdebug
p160
sVdumps
p161
S'dump'
p162
sVlockout
p163
S'lockout'
p164
sVoverlay-scrollbar
p165
S'overlay-scrollbar'
p166
sVxubuntu
p167
S'xubuntu'
p168
sVmdk
p169
S'mdk'
p170
sVmdm
p171
S'mdm'
p172
sVmdf
p173
S'mdf2iso'
p174
sVlinux-libc-dev
p175
S'linux-libc-dev'
p176
sVmixmaster
p177
S'mixmaster'
p178
sS'sms'
p179
g179
sVlibnss3
p180
S'libnss-cache'
p181
sVdsl
p182
S'dsl'
p183
sVblubuntu
p184
S'lxde'
p185
sVdsh
p186
S'dsh'
p187
sVsmc
p188
S'smc'
p189
sVsdc1
p190
S'sdf'
p191
sVinstall-info
p192
S'install-info'
p193
sVsensord
p194
S'xsensors'
p195
sVcksfv
p196
S'cksfv'
p197
sVsensors
p198
S'sensors'
p199
sS'ringtail'
p200
S'ubuntu_13.04'
p201
sS'atd'
p202
g202
sS'ata'
p203
S'ata'
p204
sVfatrat
p205
S'fatrat'
p206
sVati
p207
S'fglrx'
p208
sVdr17
p209
S'e17'
p210
sVatp
p211
S'atp'
p212
sS'atx'
p213
S'atx'
p214
sVlibjpeg-dev
p215
S'libjpeg-dbg'
p216
sVmingw
p217
g217
sVupdate-manager
p218
g156
sVffox
p219
S'firefox'
p220
sVdevede
p221
S'devede'
p222
sVthinderbird
p223
S'thunderbird'
p224
sS'tango'
p225
g225
sVmixxx
p226
S'mixxx'
p227
sVgenesis
p228
g96
sV*compiz
p229
S'compiz'
p230
sVlibpulse0
p231
S'libpulse-dev'
p232
sVsynpantic
p233
S'synaptic'
p234
sVunreachable
p235
g235
sVcrawl
p236
S'crawl'
p237
sVgtx+
p238
Vgtk+
p239
sVtrek
p240
S'tree'
p241
sVperil
p242
S'perl'
p243
sVtreo
p244
g241
sVubuntu-docs
p245
S'ubuntu-docs'
p246
sVlibsane
p247
S'libsane'
p248
sVgnomeradio
p249
S'gnomeradio'
p250
sVfilemaker
p251
g251
sVdyndns.com
p252
S'dyndns'
p253
sVlibfreetype6
p254
S'libfreetype6'
p255
sVdeamon
p256
S'daemon'
p257
sVvncviewers
p258
S'vncviewer'
p259
sS'vga'
p260
S'vga'
p261
sVindicator-cpufreq
p262
S'indicator-applet'
p263
sVnvidia-settings
p264
S'nvidia-173'
p265
sVrsyncs
p266
S'rsync'
p267
sVmemebers
p268
S'members'
p269
sV#qemu
p270
S'qemu'
p271
sVmoutn
p272
S'mount'
p273
sVrsyncd
p274
g267
sS'macbook'
p275
g275
sVgsfonts-x11
p276
S'gsfonts'
p277
sVsnaptic
p278
g234
sVsinger
p279
g29
sS'i2c'
p280
g280
sVcams
p281
S'cam'
p282
sVlpr
p283
S'lpr'
p284
sVlpq
p285
g284
sVsensor-detect
p286
g195
sVlpd
p287
g284
sVlpc
p288
g284
sVscrean
p289
S'screen'
p290
sVdnotify
p291
S'inotify'
p292
sS'signatures'
p293
g293
sVrunit
p294
g88
sVshareware
p295
g295
sVufraw
p296
S'ufraw'
p297
sVbonnie
p298
S'bonnie'
p299
sVinotify-tools
p300
S'inotify-tools'
p301
sS'fstab'
p302
g302
sVrico
p303
S'nano'
p304
sVbliss
p305
S'bless'
p306
sVbibletime
p307
S'bibletime'
p308
sVusenet
p309
S'pan'
p310
sVjupp
p311
Vjump
p312
sVforemost
p313
S'foremost'
p314
sVnzbget
p315
S'nzbget'
p316
sVssids
p317
S'ssid'
p318
sVon-board
p319
S'onboard'
p320
sVsynapitic
p321
g234
sVbranding
p322
S'branding'
p323
sV/etc/hosts
p324
S'hostname'
p325
sVradius
p326
S'radio'
p327
sVhotwire
p328
S'hotwire'
p329
sS'xebia'
p330
S'xebia'
p331
sVnetcfg
p332
S'netcfg'
p333
sVxchat-common
p334
S'xchat'
p335
sS'irq'
p336
S'irq'
p337
sVdelphi
p338
S'lazarus'
p339
sVgpilot
p340
S'pilot'
p341
sVcopyleft
p342
g342
sVsun-java5-jre
p343
S'java-common'
p344
sVxvm
p345
S'vm'
p346
sVifplugd
p347
S'ifplugd'
p348
sVncmpcpp
p349
S'ncmpcpp'
p350
sVirc
p351
S'irc'
p352
sVclaws
p353
Vclass
p354
sVgnome-terminal
p355
g45
sS'sram'
p356
S'sram'
p357
sVbinfmt-support
p358
S'binfmt-support'
p359
sVvuze
p360
S'vuze'
p361
sVjava2-runtime
p362
g344
sVsaurbraten
p363
S'sauerbraten'
p364
sS'adapter'
p365
S'adapter'
p366
sVlogix
p367
S'login'
p368
sVvbox
p369
S'virtualbox'
p370
sVexim4-config
p371
S'exim4'
p372
sVlogic
p373
g373
sVgrowisofs
p374
S'growisofs'
p375
sVlogin
p376
g368
sVzlib1g-dev
p377
S'zlib1g'
p378
sS'802.11a'
p379
S'802.11a'
p380
sV#upstart
p381
S'upstart'
p382
sVgopher
p383
S'gopher'
p384
sS'11.10'
p385
S'ubuntu_11.10'
p386
sVdifh
p387
S'rdiff'
p388
sVdiff
p389
g388
sVphotorec
p390
g314
sVtexlive-full
p391
S'texlive'
p392
sVparley
p393
S'parley'
p394
sVunion
p395
S'unison'
p396
sVgxine
p397
S'gxine'
p398
sVonbaord
p399
g320
sVdreamweaver
p400
g400
sVdots
p401
S'dots'
p402
sVmii-tool
p403
S'mii-diag'
p404
sVguarddog
p405
S'firestarter'
p406
sVworker
p407
S'worker'
p408
sVtelnet
p409
S'telnet'
p410
sVsimple-scan
p411
S'simple-cdd'
p412
sVreiser4progs
p413
S'reiser4progs'
p414
sS'child'
p415
g415
sS'802.11n'
p416
S'802.11n'
p417
sS'spin'
p418
g418
sVxtightvncviewer
p419
S'xtightvncviewer'
p420
sV*firefox
p421
g220
sVtexlive
p422
g392
sS'802.11t'
p423
S'802.11t'
p424
sVexpat
p425
S'expat'
p426
sS'toolkit'
p427
g427
sVcharactors
p428
Vcharacter
p429
sVcaplock
p430
S'numlockx'
p431
sS'13.10'
p432
S'ubuntu_13.10'
p433
sVnetspeed
p434
S'netspeed'
p435
sVnautilus-script-manager
p436
S'nautilus'
p437
sS'templates'
p438
g438
sVkubuntu-dekstop
p439
S'kubuntu-active'
p440
sVrefit
p441
S'refit'
p442
sVopenshot
p443
S'openshot'
p444
sVvigo
p445
S'vino'
p446
sVpioneers
p447
S'pioneers'
p448
sVcgoban
p449
S'cgoban'
p450
sVgnome-utils
p451
g45
sVtweaks
p452
S'tweak'
p453
sValgum
p454
S'album'
p455
sVutorrent
p456
S'ktorrent'
p457
sVgzip
p458
S'gzip'
p459
sVbootchart
p460
S'bootchart'
p461
sVkxmame
p462
S'mame'
p463
sVmaxima
p464
S'maxima'
p465
sVgigolo
p466
S'gigolo'
p467
sVaddresses)
p468
S'ips'
p469
sVlibcupsys2-dev
p470
S'libcupsys2'
p471
sVlibdbi-perl
p472
S'libdbi-dev'
p473
sVtilda
p474
S'tilda'
p475
sVpakage
p476
S'package'
p477
sVpytone
p478
S'pytone'
p479
sVhal
p480
S'hal'
p481
sVkscreensaver
p482
S'kscreensaver'
p483
sV#python
p484
S'python'
p485
sVimacs
p486
S'emacs'
p487
sVhaa
p488
S'aha'
p489
sVfortran
p490
S'gfortran'
p491
sVbnc
p492
S'znc'
p493
sVbnd
p494
S'bnd'
p495
sVaahhh
p496
g489
sVlatex2html
p497
S'latex2html'
p498
sVfilesytem
p499
S'filesystem'
p500
sVlinux-image-386
p501
S'linux-generic'
p502
sVmain-menu
p503
S'main-menu'
p504
sVopen-ssh
p505
S'openssl'
p506
sS'unique'
p507
g507
sVlibglu1-mesa-dev
p508
S'libglu-dev'
p509
sVremind
p510
S'remind'
p511
sVvlc-plugin-pulse
p512
S'vlc'
p513
sVkchmviewer
p514
S'kchmviewer'
p515
sVcreen
p516
g290
sVole
p517
S'ole'
p518
sVcrowd
p519
g519
sVkwalletmanager
p520
S'kwalletmanager'
p521
sVcd/dvds
p522
Vcd/dvd
p523
sVluksopen
p524
S'cryptsetup'
p525
sVpastbinit
p526
S'pastebinit'
p527
sVcreep
p528
S'creepy'
p529
sVsysklogd
p530
S'syslogd'
p531
sVopenssh-client
p532
S'openssh-blacklist'
p533
sVssh/
p534
S'ssh'
p535
sVssh*
p536
g535
sVassaultcube
p537
S'assaultcube'
p538
sVssh)
p539
g535
sVwitty
p540
S'witty'
p541
sVssh2
p542
S'ssh2'
p543
sVlinux-firmware
p544
S'linux-firmware'
p545
sS'retinadisplay'
p546
S'retinadisplay'
p547
sVuml
p548
S'uml'
p549
sVwvdial
p550
S'wvdial'
p551
sVshakey
p552
S'shake'
p553
sVbarcode
p554
S'barcode'
p555
sVcd/dvd/
p556
g523
sVsshd
p557
g535
sVexample-content
p558
S'example-content'
p559
sVxfonts-base
p560
S'xfonts-100dpi'
p561
sVterminatorx
p562
S'terminator'
p563
sS'thermistor'
p564
S'thermistor'
p565
sVlwp
p566
g566
sVmimms
p567
S'mimms'
p568
sS'soc'
p569
S'soc'
p570
sVkonquerer
p571
S'konqueror'
p572
sVgrsync
p573
S'grsync'
p574
sVwpa_supplicant
p575
S'wpasupplicant'
p576
sVmba
p577
S'mbr'
p578
sVmambo
p579
g579
sVsox
p580
S'sox'
p581
sVworkgroups
p582
S'workgroup'
p583
sVmbr
p584
S'mbr'
p585
sVfabric
p586
S'fabric'
p587
sVlibmikmod2
p588
S'libmikmod-dev'
p589
sVxmacro
p590
Vmacro
p591
sVwordpress
p592
S'wordpress'
p593
sVjane
p594
S'sane'
p595
sVgit-core
p596
S'git'
p597
sVmicrokernel
p598
g598
sVupdate-inetd
p599
g156
sS'fpga'
p600
S'fpga'
p601
sVumounts
p602
S'mount'
p603
sVuseradd
p604
S'adduser'
p605
sVflash_player
p606
S'flashplugin-downloader'
p607
sVgotmail
p608
S'gotmail'
p609
sVhotswap
p610
S'hotswap'
p611
sVwee-chat
p612
S'weechat'
p613
sVtoolkits
p614
g427
sS'passive-matrix'
p615
S'passive-matrix'
p616
sV#httpd
p617
S'httpd'
p618
sVlibggi2
p619
S'libggi-dev'
p620
sVksirc
p621
S'kvirc'
p622
sVphp5-mysql
p623
S'php-apc'
p624
sVtimezone
p625
S'gmt'
p626
sVqiv
p627
S'qiv'
p628
sVsda#
p629
g191
sVsda*
p630
g191
sVsda)
p631
g191
sVkget
p632
S'kget'
p633
sVsda1
p634
g191
sVjenkins
p635
S'jenkins'
p636
sVpalms
p637
g341
sVntop
p638
S'ntop'
p639
sVasterisk
p640
S'asterisk'
p641
sVdnsmasq-base
p642
S'dnsmasq'
p643
sVaslr
p644
g644
sV#lxde
p645
g185
sS'nxp'
p646
S'nxp'
p647
sVasla
p648
S'alsa'
p649
sVlazarus
p650
g339
sVspecto
p651
S'specto'
p652
sVcodeblocks
p653
S'codeblocks'
p654
sS'mp3'
p655
g655
sVsdax
p656
g191
sVkpilot
p657
g341
sVoss
p658
S'oss4'
p659
sVesvn
p660
S'subversion'
p661
sVsolfege
p662
S'solfege'
p663
sVtranscoder
p664
S'transcode'
p665
sVosi
p666
g666
sVgtk-qt
p667
g667
sVtranscoded
p668
g665
sVnetbsd
p669
g669
sVmuppet
p670
S'puppet'
p671
sVmountall
p672
S'mountall'
p673
sVosd
p674
S'osd'
p675
sVsuspending
p676
g25
sVntfs-tools
p677
S'ntfsprogs'
p678
sS'flatbed'
p679
S'flatbed'
p680
sVlibxcomposite1
p681
S'libxcomposite-dev'
p682
sVcgi-bin
p683
g683
sVdocky2
p684
S'docky'
p685
sVman2html
p686
S'man2html'
p687
sS'multiprocessing'
p688
S'multiprocessing'
p689
sS'netfilter'
p690
g690
sVxandr
p691
S'lxrandr'
p692
sVtrails
p693
S'rails'
p694
sVut2004
p695
S'quake'
p696
sVdesigns
p697
Vdesign
p698
sS'oled'
p699
S'oled'
p700
sVmelt
p701
S'melt'
p702
sVaxel
p703
S'axel'
p704
sVmelb
p705
S'meld'
p706
sVboost
p707
S'boost'
p708
sVmeld
p709
g706
sVlibpam-runtime
p710
S'libpam-abl'
p711
sVpidgin-otr
p712
g112
sVswfdec-gnome
p713
S'swfdec-gnome'
p714
sVsplice
p715
S'slice'
p716
sVxtreme
p717
Vextreme
p718
sValien-arena
p719
S'alien'
p720
sVxpde
p721
S'xpdf'
p722
sVxpdf
p723
g722
sVbaobab
p724
S'baobab'
p725
sVcdda2wav
p726
S'cdda2wav'
p727
sVxlibmesa-glu-dev
p728
S'xlibmesa-glu-dev'
p729
sVwindowing
p730
g730
sVips
p731
g469
sVumpc
p732
S'mpc'
p733
sVfake
p734
S'fake'
p735
sVipx
p736
S'ipx'
p737
sVxbase-clients
p738
S'xbase-clients'
p739
sS'lockfile'
p740
g740
sVpulseaudio-utils
p741
g43
sVrapidsvn
p742
S'rapidsvn'
p743
sVip#
p744
g469
sVip)
p745
g469
sVelilo
p746
S'lilo'
p747
sVrhtymbox
p748
S'rhythmbox'
p749
sVmldonkey-gui
p750
S'mldonkey-gui'
p751
sVgtk2-engines-xfce
p752
S'gtk-3-examples'
p753
sVlogon
p754
g368
sVlogrotate
p755
S'logrotate'
p756
sVlxterminal
p757
S'lxterminal'
p758
sVchroot
p759
S'schroot'
p760
sS'monitoring'
p761
g761
sVfpc
p762
S'fpc'
p763
sVsauerbratten
p764
g364
sVwpagui
p765
S'wpagui'
p766
sVs5
p767
S's5'
p768
sS'fpu'
p769
S'fpu'
p770
sVfpt
p771
S'ftp'
p772
sVntfsprogs
p773
g678
sVlibvorbis0a
p774
S'libvorbis0a'
p775
sVauth-client-config
p776
S'auth-client-config'
p777
sVscreenlet
p778
S'screenlets'
p779
sVmetacity)
p780
S'metacity'
p781
sVstress
p782
S'stress'
p783
sVnatural
p784
g784
sVsandbox
p785
g785
sVnautilus-sendto
p786
g437
sVlibvirt-bin
p787
S'libvirt-bin'
p788
sS's3'
p789
g789
sVpokerth
p790
S'pokerth'
p791
sVflips
p792
S'flip'
p793
sS'konq'
p794
g794
sVttf
p795
Vtruetype
p796
sVpixmap
p797
S'pixmap'
p798
sVavid
p799
Vmov
p800
sVvisualboyadvance
p801
S'visualboyadvance'
p802
sS'avis'
p803
g803
sVlimewire
p804
g753
sVtorrentflux
p805
S'torrentflux'
p806
sVnation
p807
S'notion'
p808
sVx-terminal-emulator
p809
S'x-audio-mixer'
p810
sVaprox
p811
S'approx'
p812
sVshhh
p813
g489
sVconfig
p814
g814
sVgnome-baker
p815
S'k3b'
p816
sVstellarium
p817
S'stellarium'
p818
sVbarry-util
p819
S'barry-util'
p820
sVcompil
p821
g230
sVcompie
p822
g230
sVcompix
p823
g230
sVunetbooting
p824
g70
sVcompiz
p825
g230
sVpasswds
p826
S'passwd'
p827
sVcompis
p828
g230
sVlibglu1-mesa
p829
g509
sVxserver-xorg-video-vesa
p830
S'xserver'
p831
sS'formula'
p832
g832
sVftab
p833
g302
sVpasswd-
p834
g827
sVhibernate
p835
g25
sVubuntu-standard
p836
S'ubuntu-standard'
p837
sVsiege
p838
S'siege'
p839
sVprocmail
p840
S'procmail'
p841
sVntfsfix
p842
g678
sVbumps
p843
g162
sVmsttcorefonts
p844
S'msttcorefonts'
p845
sVemulation
p846
g846
sS'soundcard'
p847
S'soundcard'
p848
sVrtkit
p849
S'rtkit'
p850
sVpartiion
p851
S'partition'
p852
sVbr2684ctl
p853
S'br2684ctl'
p854
sS'recon'
p855
g855
sVgedit-plugins
p856
S'gedit'
p857
sVre-format
p858
S'reformat'
p859
sVocaml
p860
S'ocaml'
p861
sV*grub
p862
S'grub'
p863
sS'raet'
p864
S'raet'
p865
sS'router'
p866
S'router'
p867
sVemotion
p868
S'motion'
p869
sVcryptsetup
p870
S'cryptsetup'
p871
sS'wlan'
p872
S'wlan'
p873
sVautocompletes
p874
S'autocomplete'
p875
sVautocompleted
p876
g875
sVreprepro
p877
S'reprepro'
p878
sS'mkv'
p879
g879
sS'broadcom'
p880
S'broadcom'
p881
sS'indicate'
p882
g882
sVntfs3g
p883
S'ntfs-3g'
p884
sS'params'
p885
g885
sVnvidia-current
p886
g265
sS'floppy'
p887
S'floppy'
p888
sVnetmask
p889
S'netmask'
p890
sVreiserfs
p891
S'xfs'
p892
sVlibgl1-mesa-dev
p893
S'libgl-dev'
p894
sVrosegarden
p895
S'rosegarden'
p896
sVmemtest86
p897
S'memtest86+'
p898
sVguake
p899
S'guake'
p900
sS'san'
p901
S'san'
p902
sS'sam'
p903
g903
sVsaa
p904
g904
sVzoo
p905
S'zoo'
p906
sS'atos'
p907
S'atos'
p908
sVbcrypt
p909
S'bcrypt'
p910
sVxshm
p911
g56
sS'printer'
p912
S'printer'
p913
sVbuffer
p914
S'buffer'
p915
sVdebhelper
p916
S'debhelper'
p917
sVirefox
p918
g220
sS'bwise'
p919
S'bwise'
p920
sVsdparm
p921
S'hdparm'
p922
sVvobcopy
p923
S'vobcopy'
p924
sVaxe
p925
S'axe'
p926
sVincron
p927
S'incron'
p928
sViproute
p929
S'iproute'
p930
sVatftpd
p931
S'tftpd'
p932
sVxml
p933
g933
sVhybernation
p934
g25
sVaudiacity
p935
S'audacity'
p936
sVtftpd-hpa
p937
g932
sVactio
p938
Vaction
p939
sVxfburn
p940
S'xfburn'
p941
sVgtk-chtheme
p942
g753
sVgiam
p943
S'gajim'
p944
sVpidgin-plugin-pack
p945
g112
sVlibparted0debian1
p946
S'libparted0debian1'
p947
sVprime
p948
S'prime'
p949
sVpimp
p950
S'gimp'
p951
sVprimo
p952
g949
sVosmo
p953
S'osmo'
p954
sVlogfiles
p955
S'logfile'
p956
sVlibpng12-dev
p957
S'libpng-dev'
p958
sS'radeon'
p959
S'radeon'
p960
sS'opticaldrive'
p961
S'opticaldrive'
p962
sVgns3
p963
S'gns3'
p964
sVlogin)
p965
g368
sVxdcmp
p966
S'xdmcp'
p967
sS'jumper'
p968
S'jumper'
p969
sVvertical
p970
g970
sVdomo
p971
Vdemo
p972
sVlogins
p973
g368
sVscreem
p974
S'bluefish'
p975
sVscreen
p976
g290
sVmount)
p977
g603
sVssmtp
p978
S'ssmtp'
p979
sVloging
p980
g368
sS'jaunty'
p981
S'ubuntu_9.04'
p982
sV#cups
p983
g53
sVamorok
p984
S'amarok'
p985
sVibus-anthy
p986
S'ibus'
p987
sVx2x
p988
S'x2x'
p989
sVboot-cd
p990
S'bootcd'
p991
sVsynoptic
p992
g234
sVvirutalbox
p993
g370
sVlibusb-dev
p994
S'libusb-0.1-4'
p995
sVraiserfs
p996
g892
sS'twin'
p997
g997
sVgroupware
p998
g998
sVvacation
p999
S'vacation'
p1000
sVgnome-panel-data
p1001
g45
sS'avnet'
p1002
S'avnet'
p1003
sVx-term
p1004
S'xterm'
p1005
sVformed
p1006
S'formed'
p1007
sVkazam
p1008
S'kazam'
p1009
sVkazaa
p1010
g1010
sVtribal
p1011
Vtrial
p1012
sVkeygen
p1013
g1013
sVsqueezed
p1014
S'squeeze'
p1015
sVdesklet
p1016
S'gdesklets'
p1017
sVcharmap
p1018
g1018
sVlibxvidcore4
p1019
S'libxvidcore-dev'
p1020
sVccms
p1021
S'compizconfig-backend-gconf'
p1022
sVtinyproxy
p1023
S'tinyproxy'
p1024
sVxserver-xorg-video-sis
p1025
g831
sVascii
p1026
S'ascii'
p1027
sVsmalltalk
p1028
g1028
sVhostname
p1029
g325
sVparrallel
p1030
S'parallel'
p1031
sVgnome-applets-data
p1032
g45
sVgparted
p1033
S'gparted'
p1034
sVlibstdc++5
p1035
S'libstdc++-dev'
p1036
sVhostname>
p1037
g325
sVlibstdc++6
p1038
g1036
sVdefraging
p1039
Vdefragment
p1040
sS'cd-rw'
p1041
S'cd-rw'
p1042
sS'utf8'
p1043
g1043
sS'rfid'
p1044
S'rfid'
p1045
sVdeflate
p1046
g1046
sVip-tables
p1047
S'iptables'
p1048
sVcompizconfig-settings-manager
p1049
g1022
sVmanpages
p1050
S'manpages'
p1051
sVdeff
p1052
g388
sS'ps/2'
p1053
S'ps/2'
p1054
sVdefo
p1055
g972
sS'wpa'
p1056
S'wpa'
p1057
sVinadyn
p1058
S'inadyn'
p1059
sVvitualbox
p1060
g370
sVlinux-headers-
p1061
S'linux-headers'
p1062
sVhwinfo
p1063
S'hwinfo'
p1064
sVcustomized
p1065
g1065
sV#blender
p1066
S'blender'
p1067
sVgrumpy
p1068
S'groundhog'
p1069
sVfdupes
p1070
S'fdupes'
p1071
sVmuon
p1072
S'mon'
p1073
sVslimm
p1074
S'slim'
p1075
sVslime
p1076
g1075
sVkmplot
p1077
S'kmplot'
p1078
sVvsftpd
p1079
S'vsftpd'
p1080
sVgdb
p1081
S'gdb'
p1082
sVgdc
p1083
S'gdc'
p1084
sVlibqt4-gui
p1085
S'libqt4-assistant'
p1086
sVgdm
p1087
S'gdm'
p1088
sVmingetty
p1089
S'mingetty'
p1090
sVstopwatch
p1091
S'stopwatch'
p1092
sS'netapp'
p1093
S'netapp'
p1094
sS'adobeflash'
p1095
g1095
sVrubygems
p1096
S'rubygems'
p1097
sVlibc
p1098
S'libc6'
p1099
sVq4wine
p1100
S'q4wine'
p1101
sVwesnoth
p1102
S'wesnoth'
p1103
sVvims
p1104
g120
sS'clam'
p1105
g1105
sVfreepats
p1106
S'freepats'
p1107
sVsynoptics
p1108
g234
sViftop
p1109
S'iftop'
p1110
sVruby`
p1111
S'ruby'
p1112
sVrevision
p1113
g1113
sV`sudo`
p1114
S'sudo'
p1115
sV/etc/x11/xorg
p1116
S'xorg'
p1117
sVgrub
p1118
S'grub'
p1119
sVgrum
p1120
g863
sVudev
p1121
S'udev'
p1122
sVgrup
p1123
g1119
sVaptdaemon
p1124
S'aptdaemon'
p1125
sVexif
p1126
S'exif'
p1127
sVlibselinux1
p1128
S'libselinux-dev'
p1129
sVmythbuntu-desktop
p1130
S'mythbuntu-apple-trailers'
p1131
sVexim
p1132
S'postfix'
p1133
sVtavi
p1134
g800
sVupstart-job
p1135
g382
sVkismet
p1136
S'kismet'
p1137
sVfsarchiver
p1138
S'fsarchiver'
p1139
sVddl
p1140
g1140
sVpatition
p1141
g852
sVddd
p1142
S'ddd'
p1143
sVscientific
p1144
g1144
sVdvgrab
p1145
S'dvgrab'
p1146
sVworkrave
p1147
S'workrave'
p1148
sVsprung
p1149
S'spring'
p1150
sVgraveman
p1151
g816
sV-audit
p1152
S'xauth'
p1153
sVstone
p1154
S'stone'
p1155
sS'ace'
p1156
g1156
sVacd
p1157
g1157
sVack
p1158
S'ack'
p1159
sVnetboot
p1160
S'pxe'
p1161
sVacm
p1162
S'acm'
p1163
sVacl
p1164
S'acl'
p1165
sVhostnames
p1166
g325
sVlibtool
p1167
S'libtool'
p1168
sVsinse
p1169
S'since'
p1170
sVxfce4-session
p1171
S'xfce-keyboard-shortcuts'
p1172
sVlibbluetooth3
p1173
S'libbluetooth-dev'
p1174
sVgphoto
p1175
S'gphoto2'
p1176
sS'copaco'
p1177
S'copaco'
p1178
sVaumix
p1179
g19
sVjasper
p1180
S'casper'
p1181
sVpivot
p1182
g341
sVlamp-server
p1183
g9
sVhex
p1184
S'ghex'
p1185
sVpowernow
p1186
S'cpufreqd'
p1187
sVemacs
p1188
g487
sVmythv
p1189
S'mythtv'
p1190
sS'hardtoken'
p1191
S'hardtoken'
p1192
sVgoobox
p1193
S'goobox'
p1194
sVsysklog
p1195
S'rsyslog'
p1196
sVgtypist
p1197
S'gtypist'
p1198
sVdebianutils
p1199
S'debianutils'
p1200
sVblueish
p1201
g975
sVabused
p1202
S'abuse'
p1203
sVrush
p1204
S'rush'
p1205
sVrobustness
p1206
g1206
sVabuses
p1207
g1203
sVdevscripts
p1208
S'devscripts'
p1209
sVfile-manager
p1210
S'thunar'
p1211
sVkeine
p1212
Vder
p1213
sVuif
p1214
S'uif'
p1215
sVuim
p1216
S'uim'
p1217
sS'nagios'
p1218
g1218
sVuit
p1219
g1219
sVcaracter
p1220
g429
sVjargon
p1221
S'jargon'
p1222
sVwakeonlan
p1223
S'wakeonlan'
p1224
sVcream
p1225
S'cream'
p1226
sVuucp
p1227
S'uucp'
p1228
sVsyslink
p1229
S'symlinks'
p1230
sVcvsd
p1231
S'cvs'
p1232
sV#conky
p1233
S'conky'
p1234
sVsnd*
p1235
S'snd'
p1236
sVgiftd
p1237
Vgift
p1238
sVgifts
p1239
g1238
sVoracle
p1240
g1240
sVmidget
p1241
g59
sVmencode
p1242
S'mencoder'
p1243
sVgenuis
p1244
S'genius'
p1245
sVwxwidgets
p1246
g1246
sVpidgin-musictracker
p1247
g112
sVdchp
p1248
S'dhcpd'
p1249
sVyagoo
p1250
g100
sV/var/log/message
p1251
g1196
sS'cpe'
p1252
S'cpe'
p1253
sVe2fsprogs
p1254
S'e2fsprogs'
p1255
sVircd-hybrid
p1256
S'ircd'
p1257
sS'mimic'
p1258
g1258
sVbleachbit
p1259
S'bleachbit'
p1260
sVcpp
p1261
S'cpp'
p1262
sVttf-droid
p1263
S'ttf-adf-accanthis'
p1264
sVadac
p1265
S'faac'
p1266
sS'cpu'
p1267
S'cpu'
p1268
sVscm
p1269
S'scm'
p1270
sVchroot)
p1271
g760
sS'7.10'
p1272
S'ubuntu_7.10'
p1273
sVetherwake
p1274
S'etherwake'
p1275
sVsynpatics
p1276
g234
sS'dvd+rw'
p1277
S'dvd+rw'
p1278
sVxserve
p1279
g831
sVdebuggers
p1280
Vdebugger
p1281
sVsympa
p1282
S'sympa'
p1283
sVruby
p1284
g1112
sS'ts'
p1285
g1285
sS'tm'
p1286
g1286
sS'tk'
p1287
g1287
sVasterisks
p1288
S'asterisk'
p1289
sVputty-tools
p1290
S'putty'
p1291
sS'fileserver'
p1292
S'fileserver'
p1293
sVsynapctic
p1294
g234
sVlatex-beamer
p1295
S'latex-beamer'
p1296
sVgfortran
p1297
g491
sVchroots
p1298
g760
sVncftp
p1299
S'ncftp'
p1300
sVpbr
p1301
g578
sVkaffine
p1302
S'kaffeine'
p1303
sVsane
p1304
S'sane'
p1305
sVpeon
p1306
S'pen'
p1307
sVbcmwl-modaliases
p1308
S'bcmwl-kernel-source'
p1309
sVx-window-system-core
p1310
g810
sVgnochm
p1311
g56
sVabandonware
p1312
g1312
sVinterpretor
p1313
Vinterpreter
p1314
sVcryptkeeper
p1315
S'cryptkeeper'
p1316
sVconpiz
p1317
g230
sVvisural
p1318
Vvisual
p1319
sVfreecad
p1320
S'freecad'
p1321
sVarchetecture
p1322
Varchitecture
p1323
sVlxdoom
p1324
S'lxdoom'
p1325
sVkenrel
p1326
S'kernel'
p1327
sVidjc
p1328
S'idjc'
p1329
sS'hash'
p1330
g1330
sVx-window-manager
p1331
g810
sVgmusicbrowser
p1332
S'gmusicbrowser'
p1333
sVpidgin
p1334
g112
sVwindowmaker
p1335
S'icewm'
p1336
sS'automatisering'
p1337
S'automatisering'
p1338
sVuuids
p1339
g144
sVusb-modeswitch
p1340
S'usb-creator-common'
p1341
sS'heatsink'
p1342
S'heatsink'
p1343
sVsyanptic
p1344
g234
sVrazr
p1345
S'rar'
p1346
sV/ghost
p1347
Vghost
p1348
sV/casper
p1349
g1181
sVgproftpd
p1350
g80
sVpico
p1351
g304
sg96
g96
sVsocial
p1352
g1352
sVnexuiz
p1353
S'nexuiz'
p1354
sVnfs-common
p1355
S'nfs-client'
p1356
sVnautilus-dropbox
p1357
g437
sVtmux
p1358
S'tmux'
p1359
sVvim
p1360
g120
sS'gutenprint'
p1361
g1361
sVtuxpaint
p1362
S'tuxpaint'
p1363
sS'esri'
p1364
S'esri'
p1365
sVpowernowd
p1366
g1187
sS'axians'
p1367
S'axians'
p1368
sVsyslog-ng
p1369
S'syslog-ng'
p1370
sVpearl
p1371
g243
sVfretsonfire
p1372
S'fretsonfire'
p1373
sVarchiver
p1374
S'xarchiver'
p1375
sVmysqltcl
p1376
S'mysqltcl'
p1377
sS'webkit'
p1378
g1378
sVdoom
p1379
g696
sVphp-pear
p1380
g624
sVfarted
p1381
S'parted'
p1382
sg875
g875
sVaxim
p1383
g100
sVpptpd
p1384
S'pptpd'
p1385
sVkubunut
p1386
S'kubuntu'
p1387
sVallegro
p1388
g1388
sVgnome-mplayer
p1389
g45
sVxauth
p1390
g1153
sVubutnu
p1391
S'ubuntu'
p1392
sVx-chat
p1393
g335
sS'axis'
p1394
g1394
sVteleport
p1395
S'teleport'
p1396
sVdillo
p1397
S'dillo'
p1398
sS'equinix'
p1399
S'equinix'
p1400
sVplant
p1401
S'plan'
p1402
sS'powerbutton'
p1403
g1403
sV$mount
p1404
g603
sVunixodbc
p1405
S'unixodbc'
p1406
sVlibxft-dev
p1407
S'libxft-dev'
p1408
sVbackyard
p1409
Vbackward
p1410
sVbin/cue
p1411
S'bchunk'
p1412
sS'nvidia'
p1413
S'nvidia'
p1414
sVregisted
p1415
Vregister
p1416
sVcheckbox
p1417
S'checkbox'
p1418
sVradios
p1419
g327
sVdevhelp
p1420
S'devhelp'
p1421
sVi386
p1422
S'i3'
p1423
sS'paper'
p1424
g1424
sVghome
p1425
g45
sVreadahead
p1426
S'readahead'
p1427
sS'saucy'
p1428
g433
sVsoundconverter
p1429
g114
sS'virtualmachine'
p1430
g1430
sVgcom
p1431
Vcom
p1432
sVgfce
p1433
S'xfe'
p1434
sVexec=
p1435
Vexec
p1436
sVhost-name
p1437
g325
sS'ptmp'
p1438
S'ptmp'
p1439
sVscribes
p1440
S'scribus'
p1441
sVubuntu-desktop^
p1442
S'ubuntu-desktop'
p1443
sVglade2
p1444
S'glade'
p1445
sS'browser'
p1446
g1446
sS'salamander'
p1447
g433
sVubuntu-desktop*
p1448
g1443
sVmaildrop
p1449
S'maildrop'
p1450
sVkernel-package
p1451
S'kernel-image'
p1452
sVabi
p1453
g1453
sS'subtitles'
p1454
g1454
sVlubutu
p1455
g185
sVfount
p1456
g603
sVhotkeys
p1457
S'hotkeys'
p1458
sVgnmoe
p1459
g45
sVjoel
p1460
S'joe'
p1461
sVexecs
p1462
g1436
sVbluej
p1463
Vblue
p1464
sVcrontab
p1465
S'cron'
p1466
sVbluey
p1467
g1464
sVbluez
p1468
S'bluez'
p1469
sVblues
p1470
g1464
sVftp
p1471
g772
sVnautils
p1472
g437
sVg-parted
p1473
g1034
sVinvi
p1474
Vini
p1475
sVsynaptics
p1476
g234
sVblue)
p1477
g1464
sVopenscenegraph
p1478
S'openscenegraph'
p1479
sVmouseemu
p1480
S'mouseemu'
p1481
sVblue1
p1482
g1464
sVriser
p1483
g892
sVpairs
p1484
S'pairs'
p1485
sVsynaptic/
p1486
g234
sVsynaptic)
p1487
g234
sVsynaptic*
p1488
g234
sVgnome-terminals
p1489
g45
sS'cd-r'
p1490
S'cd-r'
p1491
sVstardict
p1492
S'stardict'
p1493
sVorage
p1494
S'orange'
p1495
sS'knoppix'
p1496
g1496
sVlvm2
p1497
S'lvm2'
p1498
sS'6.06'
p1499
S'ubuntu_6.06'
p1500
sVkexi
p1501
S'kexi'
p1502
sVgnome-applets
p1503
g45
sVethereal
p1504
S'wireshark'
p1505
sVlvm)
p1506
S'lvm2'
p1507
sVdmraid
p1508
S'dmraid'
p1509
sVamsn
p1510
g100
sS'mediaplayer'
p1511
g1511
sVswipe
p1512
S'wipe'
p1513
sS'tata'
p1514
S'tata'
p1515
sVyafaray
p1516
S'yafaray'
p1517
sVjed
p1518
S'jed'
p1519
sVvidalia
p1520
S'vidalia'
p1521
sVqtparted
p1522
g1034
sVgnash
p1523
S'gnash'
p1524
sVlvms
p1525
g1507
sVgpointing-device-settings
p1526
S'gpointing-device-settings'
p1527
sVnetpanzer
p1528
S'netpanzer'
p1529
sVrhythmbox)
p1530
g749
sVgrace
p1531
Vtrace
p1532
sVdpkg
p1533
S'dpkg'
p1534
sVtortoisehg
p1535
S'tortoisehg'
p1536
sVencfs
p1537
S'encfs'
p1538
sVaac
p1539
S'faac'
p1540
sVaah
p1541
g489
sV|grep
p1542
S'grep'
p1543
sVarchitechture
p1544
g1323
sVlibapache2-mod-perl2
p1545
S'libapache-admin-config-perl'
p1546
sVhoneyd
p1547
S'honeyd'
p1548
sVinnotek
p1549
g370
sVmkcramfs
p1550
S'mkcramfs'
p1551
sVmythgame
p1552
S'mythgame'
p1553
sVbrace
p1554
g1532
sValsa
p1555
g649
sVwireless-tools
p1556
S'wireless-crda'
p1557
sVyawn
p1558
g685
sVpigdin
p1559
g112
sS'jackalope'
p1560
g982
sVvim-runtime
p1561
g120
sVtpb
p1562
S'tpb'
p1563
sVzgrep
p1564
g1543
sS'asus'
p1565
S'asus'
p1566
sVprboom
p1567
S'prboom'
p1568
sVmicrosoft
p1569
g1569
sVwpasupplicant
p1570
g576
sVblended
p1571
g1067
sVencryptfs
p1572
S'ecryptfs'
p1573
sVxscreensaver-data-extra
p1574
S'xscreensaver'
p1575
sVtrayer
p1576
S'trayer'
p1577
sVnvclock-gtk
p1578
S'nvclock'
p1579
sVblender
p1580
g1067
sVttf-mscorefonts-installer
p1581
g1264
sVkeychain
p1582
S'keychain'
p1583
sVcondor
p1584
S'condor'
p1585
sVgnome-schedule
p1586
g45
sVhookups
p1587
S'lookup'
p1588
sVkeepass
p1589
S'keepassx'
p1590
sg956
g956
sVdeporphan
p1591
S'deborphan'
p1592
sS'crt'
p1593
S'crt'
p1594
sVmetalink
p1595
S'metalink'
p1596
sVopensolaris
p1597
g1597
sVstumpwm
p1598
S'stumpwm'
p1599
sV3stack
p1600
Vstack
p1601
sVcro
p1602
g1466
sVfreeradius
p1603
S'freeradius'
p1604
sVcrm
p1605
g1605
sVfat32)
p1606
Vfat
p1607
sVlast.fm
p1608
S'lastfm'
p1609
sVunitys
p1610
S'unity'
p1611
sVrdesktop
p1612
S'rdesktop'
p1613
sVsed
p1614
S'sed'
p1615
sVsei
p1616
g1616
sVdkms
p1617
S'dkms'
p1618
sVgtk-pod
p1619
S'gtkpod'
p1620
sVnzb
p1621
S'nzb'
p1622
sV#asterisk
p1623
g1289
sV/whois
p1624
S'whois'
p1625
sVtzconfig
p1626
S'tpconfig'
p1627
sVimagemagick
p1628
S'imagemagick'
p1629
sVunity)
p1630
g1611
sVjavascript
p1631
S'javascript'
p1632
sS'interface'
p1633
S'interface'
p1634
sVfglrx
p1635
g208
sVmrtg
p1636
S'mrtg'
p1637
sS'parallelport'
p1638
S'parallelport'
p1639
sVcaracters
p1640
g429
sVaudex
p1641
S'audex'
p1642
sVpdf
p1643
g722
sVbinutils
p1644
S'binutils'
p1645
sVbuild-essential
p1646
S'build-essential'
p1647
sVflashplugin-nonfree-extrasound
p1648
g607
sV(gnome
p1649
g45
sVlex
p1650
S'flex'
p1651
sVextented
p1652
g72
sVagents
p1653
Vagent
p1654
sVgcompris
p1655
S'gcompris'
p1656
sVfreecol
p1657
S'freecol'
p1658
sVxserver-org
p1659
g831
sV`grep
p1660
g1543
sVnrg
p1661
S'nrg2iso'
p1662
sVumplayer
p1663
S'mplayer'
p1664
sVbitchx
p1665
g58
sVbitchy
p1666
g58
sVfdutils
p1667
S'fdutils'
p1668
sS'devil'
p1669
g1669
sVpacemaker
p1670
S'pacemaker'
p1671
sVpartimage
p1672
S'partimage'
p1673
sVmetacity
p1674
g781
sVphp5-cli
p1675
g624
sVbudget
p1676
g1676
sVgnutella
p1677
g753
sVroundcube
p1678
S'roundcube'
p1679
sV|awk
p1680
S'awk'
p1681
sVrekonq
p1682
S'rekonq'
p1683
sVbcmwl-kernel-source
p1684
g1309
sVreops
p1685
S'rep'
p1686
sVpound
p1687
S'pound'
p1688
sS'psk'
p1689
S'psk'
p1690
sVbinding
p1691
g1691
sVbinutil
p1692
g1645
sVmotv
p1693
g800
sVchase
p1694
S'chase'
p1695
sVamaork
p1696
g985
sVlibapache2-svn
p1697
g1546
sVgvfs
p1698
S'gvfs'
p1699
sVocnfig
p1700
g814
sVpopularity-contest
p1701
S'popularity-contest'
p1702
sVthundebird
p1703
g224
sVidentd
p1704
S'ident'
p1705
sVlxc
p1706
S'lxc'
p1707
sVsshfs
p1708
S'sshfs'
p1709
sVpse
p1710
g1710
sVtsql
p1711
Vsql
p1712
sg1601
g1601
sVtofrodos
p1713
S'tofrodos'
p1714
sVgqview
p1715
S'gqview'
p1716
sS'mirroredvolume'
p1717
S'mirroredvolume'
p1718
sVlaptop-mode-tools
p1719
S'laptop-detect'
p1720
sVsynptic
p1721
g234
sVpackman
p1722
S'pacman'
p1723
sVrovclock
p1724
S'rovclock'
p1725
sVjohan
p1726
S'john'
p1727
sS'admingroup'
p1728
g1728
sVxserver
p1729
g831
sVsirc
p1730
g352
sVeggdrops
p1731
S'eggdrop'
p1732
sVhercules
p1733
S'hercules'
p1734
sVmysql
p1735
S'mysqld'
p1736
sVfirefox
p1737
g220
sVnautlus
p1738
g437
sS'simm'
p1739
S'simm'
p1740
sS'accesspoint'
p1741
S'accesspoint'
p1742
sVcompiz-fusion-plugins-extra
p1743
g485
sValoha
p1744
Valpha
p1745
sVlib32ncurses5
p1746
S'lib32ncurses5'
p1747
sVadobe-flashplugin
p1748
g607
sVsnappy
p1749
S'snappy'
p1750
sV#irssi
p1751
g58
sVgddrescue
p1752
S'gddrescue'
p1753
sVwinbindd
p1754
S'winbind'
p1755
sVifup/down
p1756
S'ifupdown'
p1757
sV/user/local
p1758
S'opt'
p1759
sVgenisoimage
p1760
S'genisoimage'
p1761
sVtweaky
p1762
g453
sVgrips
p1763
S'abcde'
p1764
sVteminal
p1765
S'terminal'
p1766
sVxorg-server
p1767
g831
sVcommunications
p1768
g1768
sVnautilous
p1769
g437
sVryhtmbox
p1770
g749
sVspring
p1771
S'spring'
p1772
sVpalm
p1773
S'palm'
p1774
sS'palo'
p1775
S'palo'
p1776
sVclonezilla
p1777
g1673
sVjokosher
p1778
S'jokosher'
p1779
sS'religion'
p1780
g1780
sS'koala'
p1781
S'ubuntu_9.10'
p1782
sVinterpreters
p1783
g1314
sS'bt'
p1784
g1784
sVsanta
p1785
Vide
p1786
sVwget
p1787
S'wget'
p1788
sVxbindkeys
p1789
S'xbindkeys'
p1790
sV#aircrack-ng
p1791
g41
sVgajim
p1792
g944
sVmaterm
p1793
S'aterm'
p1794
sVubuntu-destop
p1795
g1443
sVcomputational
p1796
g1796
sVwebalizer
p1797
S'webalizer'
p1798
sVia32-lib
p1799
g37
sVgdisk
p1800
S'gdisk'
p1801
sVgpaint
p1802
S'xpaint'
p1803
sVlight-themes
p1804
S'light-themes'
p1805
sS'bios'
p1806
g1806
sVjacks
p1807
S'jack'
p1808
sVposter
p1809
S'poster'
p1810
sVfile-roller
p1811
g1375
sVksudo
p1812
g1115
sVnullmailer
p1813
S'nullmailer'
p1814
sVjackd
p1815
S'jackd'
p1816
sVdexconf
p1817
S'debconf'
p1818
sS'10.10'
p1819
S'ubuntu_10.10'
p1820
sVlibvdpau1
p1821
S'libvdpau-dev'
p1822
sS'usbstick'
p1823
g1823
sVguessnet
p1824
S'guessnet'
p1825
sVfaad
p1826
g1540
sVjack_
p1827
g1808
sVcervisia
p1828
S'cervisia'
p1829
sVfaac
p1830
g1540
sVpreemptive
p1831
g1831
sS'ui'
p1832
g1832
sVsupervisor
p1833
S'supervisor'
p1834
sS'inkjet'
p1835
S'inkjet'
p1836
sVparser
p1837
g1837
sVchap
p1838
S'ppp'
p1839
sS'superscalar'
p1840
S'superscalar'
p1841
sVpython-dev
p1842
g485
sS'intrepid'
p1843
S'ubuntu_8.10'
p1844
sVgnome-network-admin
p1845
g45
sVgnuplot
p1846
S'gnuplot'
p1847
sVrkhunter
p1848
S'rkhunter'
p1849
sVfirestater
p1850
g406
sVcodec
p1851
g1851
sg27
g27
sVlsdvd
p1852
S'lsdvd'
p1853
sVsorcerer
p1854
S'sorcerer'
p1855
sVnodeps
p1856
S'node'
p1857
sVhttp://www.cgsecurity.org/wiki/testdisk
p1858
S'testdisk'
p1859
sVscrub
p1860
S'scrub'
p1861
sVc/c++
p1862
S'g++'
p1863
sS'lucid'
p1864
S'ubuntu_10.04'
p1865
sVbzflag
p1866
S'bzflag'
p1867
sVslice
p1868
g716
sVwicd-curses
p1869
S'wicd'
p1870
sVserver-xorg
p1871
g831
sVlibnotify-bin
p1872
S'libnotify-bin'
p1873
sS'cnf'
p1874
g1874
sVddclient
p1875
S'ddclient'
p1876
sValgorithm
p1877
S'algorithm'
p1878
sS'12.10'
p1879
S'ubuntu_12.10'
p1880
sVicewm
p1881
g1336
sVlinphone
p1882
S'linphone'
p1883
sS'agp'
p1884
S'agp'
p1885
sVtexlive-latex-base
p1886
g392
sVpartial
p1887
g1887
sVos/2
p1888
g1888
sVtotem
p1889
S'totem'
p1890
sVbrightside
p1891
S'brightside'
p1892
sVsquid3
p1893
S'squid'
p1894
sVkgpg
p1895
S'gpa'
p1896
sVbsds
p1897
Vbsd
p1898
sVemesen
p1899
S'emesene'
p1900
sS'tomtom'
p1901
S'tomtom'
p1902
sVdenyhosts
p1903
S'denyhosts'
p1904
sVunzip
p1905
S'unzip'
p1906
sVkmymoney2
p1907
S'kmymoney'
p1908
sVgtk1
p1909
g753
sS'gtk2'
p1910
g1910
sS'gtk3'
p1911
g1911
sVgtk*
p1912
g239
sg239
g239
sVwipe
p1913
g1513
sVdhcpcd
p1914
S'dhcpcd'
p1915
sVgtk#
p1916
g239
sS'i/oaddress'
p1917
S'i/oaddress'
p1918
sVforefox
p1919
g220
sS'rack'
p1920
g1920
sVwavemon
p1921
S'wavemon'
p1922
sVself-extracting
p1923
g1923
sVbidget
p1924
g59
sS'odu'
p1925
S'odu'
p1926
sVlicensed
p1927
Vgpl
p1928
sValphanumeric
p1929
g1929
sS'trackball'
p1930
S'trackball'
p1931
sVopen-sourced
p1932
Vopen-source
p1933
sVfreetds
p1934
g1934
sVequivs
p1935
S'equivs'
p1936
sVbird
p1937
S'bird'
p1938
sVwireshark
p1939
S'wireshark'
p1940
sS'led'
p1941
S'led'
p1942
sValcarte
p1943
S'alacarte'
p1944
sVubunti
p1945
g1392
sVubunto
p1946
g1392
sVgmpc
p1947
g733
sVibis
p1948
g987
sVoctave
p1949
S'octave'
p1950
sg1392
g1392
sVmusicbrainz
p1951
S'id-utils'
p1952
sVbogofilter
p1953
S'bogofilter'
p1954
sV-alsa
p1955
S'alsa'
p1956
sVsftpd
p1957
S'lftp'
p1958
sV/blue
p1959
g1464
sVdbootstrap
p1960
S'debootstrap'
p1961
sVrdp
p1962
g90
sVkynaptic
p1963
g234
sVnautilus-data
p1964
g437
sVfirmware-b43legacy-installer
p1965
S'firmware-addon-dell'
p1966
sVdecompiler
p1967
g1967
sVrdc
p1968
S'krdc'
p1969
sS'ctl'
p1970
g1970
sVstvn
p1971
g661
sVrespos
p1972
g1686
sVxcb
p1973
S'xcb'
p1974
sVgrub-doc
p1975
g863
sVppp0
p1976
g1839
sVppp1
p1977
g1839
sVlibdbus-1-3
p1978
S'libdbus-1-3'
p1979
sS'ircclients'
p1980
S'ircclient'
p1981
sVgcalctool
p1982
S'gcalctool'
p1983
sV#compiz
p1984
g230
sVpython-lxml
p1985
g485
sV`vncviewer
p1986
g259
sVzip
p1987
S'zip'
p1988
sS'zif'
p1989
S'zif'
p1990
sVlowmem
p1991
S'lowmem'
p1992
sVzim
p1993
S'zim'
p1994
sVpencil
p1995
S'pencil'
p1996
sVjabberd2
p1997
S'jabberd2'
p1998
sVrfkill
p1999
S'rfkill'
p2000
sS'pff'
p2001
g2001
sVpppd
p2002
g1839
sVupgrade-manager
p2003
g156
sVmythtv-backend
p2004
g1190
sVpppo
p2005
S'pppoe'
p2006
sVxubuntu-restricted-extras
p2007
S'ubuntu-restricted-addons'
p2008
sVthin
p2009
S'thin'
p2010
sVmicrosfot
p2011
g1569
sVqtcurve
p2012
S'qtcurve'
p2013
sVbenq
p2014
S'ben'
p2015
sS'mpeg2'
p2016
g2016
sVweaker
p2017
S'wmaker'
p2018
sVnamebench
p2019
S'namebench'
p2020
sVslim
p2021
g1075
sVjavadoc
p2022
g2022
sVmbmon
p2023
S'mbmon'
p2024
sVbenc
p2025
g2015
sVstreamer
p2026
S'streamer'
p2027
sVbeni
p2028
g2015
sVwarez
p2029
g2029
sVndiswrapper-source
p2030
S'ndiswrapper-common'
p2031
sS'animal'
p2032
g2032
sVmumbles
p2033
S'mumble'
p2034
sVintelligent
p2035
g2035
sValsa-oss
p2036
g1956
sVblackbox
p2037
S'blackbox'
p2038
sVtcsh
p2039
S'tcsh'
p2040
sVsingular
p2041
S'singular'
p2042
sVwallpaper
p2043
S'wallpaper'
p2044
sVgcc
p2045
S'gcc'
p2046
sVlibc6>
p2047
g1099
sVpidgen
p2048
g112
sVxhcat
p2049
g335
sVclass)
p2050
g354
sVredundant
p2051
g2051
sVclassy
p2052
g354
sVextlinux
p2053
S'extlinux'
p2054
sVregionset
p2055
S'regionset'
p2056
sVhpodder
p2057
S'hpodder'
p2058
sVdvtm
p2059
S'dvtm'
p2060
sVext3grep
p2061
S'ext3grep'
p2062
sS'dotpitch'
p2063
S'dotpitch'
p2064
sVubunutu
p2065
g1392
sVx-sane
p2066
S'xsane'
p2067
sVfspot
p2068
S'f-spot'
p2069
sVvmx
p2070
g346
sVvms
p2071
g346
sVdirectx
p2072
g2072
sVnautius
p2073
g437
sVredshift
p2074
S'redshift'
p2075
sVdebian-installer
p2076
S'debian-archive-keyring'
p2077
sVopenvpn
p2078
S'openvpn'
p2079
sVmednafen
p2080
S'mednafen'
p2081
sVcuss
p2082
g53
sVsmb4k
p2083
S'smb4k'
p2084
sVvm)
p2085
g346
sVpython
p2086
S'python'
p2087
sVlibglade2-dev
p2088
S'libglade2-0'
p2089
sVlzm
p2090
S'lzma'
p2091
sVmaount
p2092
g603
sVtraced
p2093
g1532
sVsniffing
p2094
S'dsniff'
p2095
sS'truth'
p2096
g2096
sVlibgd2-noxpm
p2097
S'libgd-barcode-perl'
p2098
sVtracer
p2099
S'tracker'
p2100
sS'kpn'
p2101
S'kpn'
p2102
sVqmail
p2103
S'qmail'
p2104
sVscantv
p2105
S'scantv'
p2106
sVambiance
p2107
S'radiance'
p2108
sVtransmageddon
p2109
S'transmageddon'
p2110
sVbooks
p2111
S'abook'
p2112
sS'cpanel'
p2113
g2113
sV#audacity
p2114
g936
sVlinux-generic-pae
p2115
g502
sVsnippy
p2116
S'snappy'
p2117
sV``dpkg
p2118
g1534
sVmatrix
p2119
S'cmatrix'
p2120
sVlilo)
p2121
g747
sVparitition
p2122
g852
sVxorg-driver-fglrx
p2123
g208
sVdhcp
p2124
g1249
sVadaptive
p2125
g2125
sVcentericq
p2126
S'centerim'
p2127
sV-fg
p2128
S'tint'
p2129
sVpigin
p2130
g112
sVminidlna
p2131
S'minidlna'
p2132
sVkvpnc
p2133
S'vpnc'
p2134
sVmiredo
p2135
S'miredo'
p2136
sVmesa-utils
p2137
S'mesa-common-dev'
p2138
sVplugings
p2139
Vplugin
p2140
sS'thickclient'
p2141
S'thickclient'
p2142
sVthunderbirds
p2143
g224
sVtestdisk
p2144
g1859
sVlibc-bin
p2145
S'libc-ares-dev'
p2146
sVpython-mysqldb
p2147
g485
sVfestival
p2148
S'festival'
p2149
sVlicens
p2150
g1928
sS'nvram'
p2151
S'nvram'
p2152
sVl2tp
p2153
g1958
sVgnome-xchat
p2154
g335
sVkpdf
p2155
g722
sVlibncurses5-dev
p2156
S'libncurses-dev'
p2157
sVobconf
p2158
S'obconf'
p2159
sVhdparm
p2160
g922
sVhddtemp
p2161
S'hddtemp'
p2162
sVkdesu
p2163
S'kdesudo'
p2164
sVlibcurl3-gnutls
p2165
S'libcurl-dev'
p2166
sV/apps/nautilus/desktop
p2167
S'gconf-cleaner'
p2168
sVinetutils-inetd
p2169
S'inetutils-ftp'
p2170
sVdhcp3-server
p2171
S'dhcp-client'
p2172
sVgently
p2173
S'gentle'
p2174
sVsysadmin
p2175
g2175
sVgentle
p2176
g2174
sVbitlord
p2177
g2177
sVproxychains
p2178
S'proxychains'
p2179
sS'sdram'
p2180
S'sdram'
p2181
sVwidgit
p2182
g59
sVlilo
p2183
g747
sVlili
p2184
g747
sVfxp
p2185
g772
sVkdirstat
p2186
S'kdirstat'
p2187
sVatis
p2188
g208
sVbittorando
p2189
S'bittornado'
p2190
sVinitramfs
p2191
S'busybox'
p2192
sVvisa
p2193
S'visa'
p2194
sV(/etc/default/grub
p2195
g33
sVvise
p2196
S'wise'
p2197
sVxarg
p2198
g1117
sS'segment'
p2199
g2199
sVpastebinit
p2200
g527
sVpython-gtk2
p2201
g485
sVati)
p2202
g208
sVkeyring
p2203
g45
sVdbi
p2204
g2204
sS'dbm'
p2205
S'dbm'
p2206
sVdba
p2207
g2207
sS'dbd'
p2208
S'dbd'
p2209
sVbedroom
p2210
g2210
sVripoff
p2211
S'ripoff'
p2212
sVlynx-cur
p2213
S'lynx'
p2214
sg1766
g1766
sVjam
p2215
S'jam'
p2216
sVtape
p2217
g2217
sVavah
p2218
g489
sS'spiffy'
p2219
g2219
sValarm-clock-applet
p2220
S'alarm-clock'
p2221
sVwiggle
p2222
S'wiggle'
p2223
sVdb2
p2224
g2224
sVirb
p2225
S'irb'
p2226
sVxclip
p2227
S'xclip'
p2228
sS'aes'
p2229
S'aes'
p2230
sS'hotswappable'
p2231
S'hotswappable'
p2232
sVmutt
p2233
S'mutt'
p2234
sVlibpng12-0
p2235
g958
sVjgoo
p2236
S'goo'
p2237
sVgnome/
p2238
g45
sS'frame'
p2239
g2239
sV/dos
p2240
Vdos
p2241
sVseted
p2242
S'seed'
p2243
sVgnome)
p2244
g45
sVgnome2
p2245
g45
sVgnome3
p2246
g45
sVgparted)
p2247
g1034
sVbti
p2248
S'bti'
p2249
sVlilypond-data
p2250
g78
sVplayonlinux
p2251
S'playonlinux'
p2252
sVmicro$oft
p2253
g1569
sVessids
p2254
g318
sVms-dos
p2255
g2255
sS'qt4'
p2256
g2256
sS'dvorakkeyboard'
p2257
S'dvorakkeyboard'
p2258
sVgnomer
p2259
g45
sVgnomes
p2260
g45
sVrythembox
p2261
g749
sS'ext2'
p2262
g2262
sS'tls'
p2263
S'tls'
p2264
sVdoxygen
p2265
S'doxygen'
p2266
sVlsb-core
p2267
S'lsb'
p2268
sVsupertux
p2269
S'supertux'
p2270
sVvalgrind
p2271
S'valgrind'
p2272
sVflgrx
p2273
g208
sS'streams'
p2274
g2274
sVpidgin-encryption
p2275
g112
sVme-tv
p2276
S'me-tv'
p2277
sS'cf'
p2278
g2278
sVucf
p2279
S'ucf'
p2280
sV/var/logs/syslog
p2281
g1196
sVuck
p2282
S'uck'
p2283
sVmailto
p2284
S'mailto'
p2285
sVx-window-system
p2286
g810
sVmailman
p2287
S'mailman'
p2288
sVkeying
p2289
g45
sVelmer
p2290
S'elmer'
p2291
sVquotas
p2292
S'quota'
p2293
sVindicator-applet-session
p2294
g263
sVheirloom-mailx
p2295
S'heirloom-mailx'
p2296
sVcoherence
p2297
S'coherence'
p2298
sVcritcal
p2299
Vcritical
p2300
sVcvs
p2301
g1232
sVlanguage-selector-common
p2302
S'language-pack-aa'
p2303
sVresolvconf
p2304
S'resolvconf'
p2305
sVkupfer
p2306
S'kupfer'
p2307
sVgnome-menus
p2308
g45
sS'vc'
p2309
g2309
sVhexedit
p2310
S'hexedit'
p2311
sVripe
p2312
g1513
sValsa-tools
p2313
g1956
sVlibxml2
p2314
S'libxml-atom-fromowl-perl'
p2315
sVvm
p2316
g346
sS'vo'
p2317
g2317
sS'acer'
p2318
S'acer'
p2319
sVsynaptix
p2320
g234
sV/dev/*
p2321
g1122
sVzgv
p2322
S'zgv'
p2323
sVhighlighted
p2324
S'highlight'
p2325
sS'matthew'
p2326
g2326
sVgtk2-engines
p2327
g753
sS'android'
p2328
g2328
sVspell
p2329
S'aspell'
p2330
sVxresprobe
p2331
S'xresprobe'
p2332
sVlircd
p2333
S'lirc'
p2334
sVphp
p2335
g2335
sS'audit'
p2336
g2336
sVxfce4-terminal
p2337
g1172
sVtranscodes
p2338
g665
sS'tele2'
p2339
S'tele2'
p2340
sVphp5-common
p2341
g624
sViso-scan
p2342
S'iso-codes'
p2343
sg500
g500
sVdrawing
p2344
g2344
sV/dev/x
p2345
g1122
sVlinux-igd
p2346
S'linux-igd'
p2347
sVvim-common
p2348
g120
sVsonata
p2349
S'sonata'
p2350
sS'xen'
p2351
g2351
sVdas
p2352
S'das'
p2353
sVgdebi-core
p2354
S'gdebi'
p2355
sV*sudo
p2356
g1115
sVcssm
p2357
g1022
sVz01
p2358
g1988
sVvsftpd)
p2359
g1080
sVspinner
p2360
S'spinner'
p2361
sS'wep'
p2362
S'wep'
p2363
sVcrack
p2364
S'crack'
p2365
sVqemulator
p2366
g96
sVnvu
p2367
g975
sVlibsdl-dev
p2368
g154
sVgconf-editor
p2369
g2168
sVurxvt
p2370
S'rxvt'
p2371
sVhaul
p2372
g481
sV/mozilla
p2373
Vmozilla
p2374
sVnvi
p2375
S'nvi'
p2376
sVkonqueror
p2377
g572
sVminicom
p2378
S'minicom'
p2379
sVtraceroutes
p2380
S'traceroute'
p2381
sVubuntu-vm-builder
p2382
S'ubuntu-vm-builder'
p2383
sVwmplayer
p2384
g1664
sS'dvd-ram'
p2385
S'dvd-ram'
p2386
sVdokuwiki
p2387
S'dokuwiki'
p2388
sVphp5-curl
p2389
g624
sVmacromedia
p2390
g2390
sVflush
p2391
S'flush'
p2392
sVdeboostrap
p2393
g1961
sVdvd+rw-tools
p2394
S'dvd+rw-tools'
p2395
sVmodule-assistant
p2396
S'module-assistant'
p2397
sS'disk'
p2398
S'disk'
p2399
sVpsftp
p2400
g1958
sVpreload
p2401
S'preload'
p2402
sS'schedule'
p2403
g2403
sVnvidia-setting
p2404
g265
sVsymlink
p2405
g1230
sVdmidecode
p2406
S'dmidecode'
p2407
sVtint
p2408
g2129
sS'peap'
p2409
S'peap'
p2410
sVzips
p2411
g1988
sVacidrip
p2412
S'acidrip'
p2413
sVkeyboard-configuration
p2414
S'keyboard-configuration'
p2415
sVlibpam-ldap
p2416
g711
sVcharachter
p2417
g429
sVhellanzb
p2418
S'hellanzb'
p2419
sVseeds
p2420
g2243
sS'memorystick'
p2421
S'memorystick'
p2422
sValliance
p2423
S'alliance'
p2424
sVparler
p2425
g1837
sVqmake
p2426
S'cmake'
p2427
sVluna
p2428
S'lua'
p2429
sVmerc
p2430
g352
sVrcconf
p2431
S'rcconf'
p2432
sVvirtualbox
p2433
g370
sVdm-crypt
p2434
g525
sVblkid
p2435
S'uuid'
p2436
sVtransmission-common
p2437
S'transmission'
p2438
sVkdenlive
p2439
S'kdenlive'
p2440
sVopenbsd-inetd
p2441
S'openbsd-inetd'
p2442
sVrdiff-backup
p2443
g388
sVuxterm
p2444
g1005
sVccsm
p2445
g1022
sS'chipset'
p2446
S'chipset'
p2447
sVratpoison
p2448
S'ratpoison'
p2449
sS'ciber'
p2450
S'ciber'
p2451
sVlibqtgui4
p2452
S'libqtgui4'
p2453
sS'int'
p2454
g2454
sVinn
p2455
S'inn'
p2456
sg1475
g1475
sVink
p2457
S'ink'
p2458
sVing
p2459
g2459
sVbzip2
p2460
S'bzip2'
p2461
sVtrials
p2462
g1012
sS'cegeka'
p2463
S'cegeka'
p2464
sVhpp
p2465
g1262
sV/chroot
p2466
g760
sVlookup
p2467
g1588
sS'comparex'
p2468
S'comparex'
p2469
sVlibx11-6
p2470
S'libx11-6'
p2471
sVkubuntu-desktop
p2472
g440
sVmemtest86+
p2473
g898
sVcheeze
p2474
S'cheese'
p2475
sg1348
g1348
sVeog
p2476
S'eog'
p2477
sS'quetzal'
p2478
g1880
sVsymbollic
p2479
Vsymbolic
p2480
sVgeeqie
p2481
S'geeqie'
p2482
sS'aliased'
p2483
g2483
sVsaver
p2484
g483
sVnethogs
p2485
S'nethogs'
p2486
sVentropy
p2487
g2487
sVrsyslog
p2488
g1196
sVlgpl
p2489
g1928
sVtunapie
p2490
S'tunapie'
p2491
sVspew
p2492
S'spew'
p2493
sVbitcomet
p2494
g2494
sVmatlab
p2495
S'octave'
p2496
sVeditra
p2497
S'editra'
p2498
sVyoutube-dl
p2499
S'youtube-dl'
p2500
sValarm-clock
p2501
g2221
sVaurora
p2502
S'aurora'
p2503
sVxastir
p2504
S'xastir'
p2505
sS'eirp'
p2506
S'eirp'
p2507
sVepiphany
p2508
g66
sVunshare
p2509
S'ushare'
p2510
sVmpgtx
p2511
S'mpgtx'
p2512
sVtclsh
p2513
g2040
sVcompviz
p2514
g230
sVd-bus
p2515
S'dbus'
p2516
sVxdotool
p2517
S'xdotool'
p2518
sVgnome-core
p2519
g45
sVmacchanger
p2520
S'macchanger'
p2521
sS'usbsticks'
p2522
g1823
sS'fhss'
p2523
S'fhss'
p2524
sVxsltproc
p2525
S'xsltproc'
p2526
sVfreebasic
p2527
g2527
sVgtksu
p2528
S'gksu'
p2529
sVtotems
p2530
g1890
sVacpi-support
p2531
S'acpi'
p2532
sVmpeg
p2533
g2016
sVmicrosofts
p2534
g1569
sVices2
p2535
S'ices2'
p2536
sVmsql
p2537
S'postgresql'
p2538
sV#virtualbox
p2539
g370
sV/opt
p2540
g1759
sVxfonts-75dpi
p2541
g561
sVtotem*
p2542
g1890
sVpygtk
p2543
g2543
sS'ziggo'
p2544
S'ziggo'
p2545
sVgpsd
p2546
S'gpsd'
p2547
sVaixgl
p2548
g158
sVcodecs
p2549
g1851
sVchroot'ed
p2550
g760
sVcron'd
p2551
g1466
sVxorg-xserver
p2552
g831
sVrsdp
p2553
g90
sVltrace
p2554
S'strace'
p2555
sVg15daemon
p2556
S'g15daemon'
p2557
sVdmfe
p2558
S'tulip'
p2559
sVpacakge
p2560
g477
sS'awater'
p2561
S'awater'
p2562
sVdyndns.org
p2563
g253
sVgsudo
p2564
g1115
sVglance
p2565
S'glance'
p2566
sS'plot'
p2567
g2567
sVrepros
p2568
g1686
sV`gksu
p2569
g2529
sVbundles
p2570
Vbundled
p2571
sVbundler
p2572
g2571
sVcomcast
p2573
g469
sVsymaptic
p2574
g234
sg2571
g2571
sVabusing
p2575
g1203
sVlynx_
p2576
g2214
sVcdparanoia
p2577
S'cdparanoia'
p2578
sS'erp'
p2579
S'erp'
p2580
sVskype4pidgin
p2581
S'skype4pidgin'
p2582
sVeclipse
p2583
S'eclipse'
p2584
sVudma
p2585
S'dma'
p2586
sVerc
p2587
S'erc'
p2588
sVcrackers
p2589
g2100
sVcrufty
p2590
g94
sVradiance
p2591
g2108
sVrepos
p2592
S'repo'
p2593
sVrepot
p2594
g1686
sVubuntu-dekstop
p2595
g1443
sVgeda
p2596
S'geda'
p2597
sVispell
p2598
g2330
sVuae
p2599
S'uae'
p2600
sVgrub-pc
p2601
g863
sVpppoa
p2602
g2006
sVpppoe
p2603
g2006
sS'lan'
p2604
S'lan'
p2605
sS'supercomputer'
p2606
S'supercomputer'
p2607
sVeasystroke
p2608
S'easystroke'
p2609
sVxen-tools
p2610
S'xen-docs-4.1'
p2611
sVfirebox
p2612
g220
sVladder
p2613
S'ladder'
p2614
sVrenameutils
p2615
S'renameutils'
p2616
sVrepo)
p2617
g1686
sVopenal
p2618
Vopengl
p2619
sVlat
p2620
S'lat'
p2621
sS'las'
p2622
g2622
sVpackge
p2623
g477
sVdjbdns
p2624
S'djbdns'
p2625
sVhasty
p2626
S'nasty'
p2627
sS'secondarymemory'
p2628
S'secondarymemory'
p2629
sVntp.ubuntu.com
p2630
S'ntpdate'
p2631
sVlxappearance
p2632
S'lxappearance'
p2633
sS'zen'
p2634
g2634
sVpascal
p2635
g2635
sVpython-support
p2636
g485
sVmedusa
p2637
S'medusa'
p2638
sS'pcmcia'
p2639
S'pcmcia'
p2640
sS'ticket'
p2641
g2641
sVhighlights
p2642
g2325
sVmysql-server
p2643
S'mysql-client'
p2644
sVd4x
p2645
g1788
sVpptx
p2646
g1385
sVlibmotif3
p2647
S'libmotif-dev'
p2648
sVpptp
p2649
g1385
sV-dvd-compat
p2650
g375
sS'bread'
p2651
g2651
sVvinok
p2652
g446
sVdo-release-upgrade
p2653
g156
sVroutines
p2654
Vroutine
p2655
sVbackgrounds
p2656
g2044
sV#eggdrop
p2657
g1732
sVroot-tail
p2658
S'root-authentication'
p2659
sVxgl
p2660
g158
sVdydns
p2661
g253
sVlbreakout2
p2662
S'lbreakout2'
p2663
sVsled
p2664
g1615
sVsoulseek
p2665
S'nicotine'
p2666
sVlottanzb
p2667
S'lottanzb'
p2668
sVlibxfixes-dev
p2669
S'libxfixes-dev'
p2670
sVfreeciv
p2671
S'freeciv'
p2672
sViptable
p2673
g1048
sVcdroast
p2674
g816
sV#vlc
p2675
g513
sVgnome-screenshot
p2676
g45
sVetx3
p2677
S'ext3'
p2678
sVleafpad
p2679
S'leafpad'
p2680
sVunbuntu
p2681
g1392
sVputty
p2682
g1291
sVcmopiz
p2683
g230
sS'monkey'
p2684
g2684
sVxchat-gnome
p2685
g335
sVgnome-media
p2686
g45
sVcomiz
p2687
g230
sVkernel-header
p2688
g1062
sVffmpeg2theora
p2689
S'ffmpeg2theora'
p2690
sVrats
p2691
S'rats'
p2692
sV-listen
p2693
g259
sS'reiser4'
p2694
g2694
sVreiser3
p2695
g892
sV~/firefox
p2696
g220
sVjohn
p2697
g1727
sVsoprano-daemon
p2698
S'soprano-daemon'
p2699
sVttysnoop
p2700
S'ttysnoop'
p2701
sVnahh
p2702
g489
sVnorton
p2703
g1348
sVtottem
p2704
g1890
sV#mandrake
p2705
g170
sVreiserf
p2706
g892
sVjockey-gtk
p2707
g84
sVxmms
p2708
S'audacious'
p2709
sVdigitals
p2710
Vdigital
p2711
sV#pulseaudio
p2712
g43
sVdeskop
p2713
S'desktop'
p2714
sVxvnc
p2715
g90
sVusb-imagewriter
p2716
g1341
sVxfsprogs
p2717
S'xfsprogs'
p2718
sVdigicam
p2719
S'digikam'
p2720
sVnumlock
p2721
g431
sVdnat
p2722
S'nat'
p2723
sVstrength
p2724
g2724
sS'inputdevice'
p2725
S'inputdevice'
p2726
sVtintin++
p2727
S'tintin++'
p2728
sVcpufreqd
p2729
S'cpufreq'
p2730
sVtimidity
p2731
S'timidity'
p2732
sVbruce
p2733
Vbrute
p2734
sV-bg
p2735
g2129
sVpybackpack
p2736
S'pybackpack'
p2737
sVcorded
p2738
g27
sVlvpm
p2739
g1507
sVautopsy
p2740
S'autopsy'
p2741
sV-br
p2742
g1153
sVdancer-ircd
p2743
S'dancer-ircd'
p2744
sVkernel-sources
p2745
g63
sVwebcam
p2746
S'webcam'
p2747
sVkde-base
p2748
g440
sVsmuxi
p2749
S'smuxi'
p2750
sVnotion
p2751
g808
sVlibqt4-core
p2752
g1086
sVsubtly
p2753
S'subtle'
p2754
sVftpd
p2755
S'ftpd'
p2756
sVlibc6-i386
p2757
g1099
sVftps
p2758
g772
sVfindutils
p2759
S'findutils'
p2760
sVkeywords
p2761
S'keyword'
p2762
sVsubtle
p2763
g2754
sV-386
p2764
g1423
sVardvark
p2765
S'rancid'
p2766
sVgetmail
p2767
g609
sVcario
p2768
g685
sS'gutsy'
p2769
g1273
sVreadpst
p2770
S'readpst'
p2771
sVskyp
p2772
S'ekiga'
p2773
sViptables
p2774
g1048
sVtracert
p2775
g2381
sVftp)
p2776
g772
sVlibjpeg62-dev
p2777
g216
sS'dc'
p2778
g2778
sVprelink
p2779
S'prelink'
p2780
sVapache2)
p2781
S'apache2'
p2782
sVnasty
p2783
g2627
sS'ds'
p2784
g2784
sS'emc'
p2785
S'emc'
p2786
sS'emi'
p2787
S'emi'
p2788
sVsynpatic
p2789
g234
sVfirefo
p2790
g220
sS'emu'
p2791
g2791
sV1386
p2792
g1423
sS'ordina'
p2793
S'ordina'
p2794
sVapache2-utils
p2795
g2782
sVlubuntu-desktop
p2796
S'lubuntu-artwork'
p2797
sVmoount
p2798
g603
sVgsynaptics
p2799
S'gsynaptics'
p2800
sVgnome-commander
p2801
g45
sVmicrocode
p2802
g2802
sVmdadm
p2803
S'mdadm'
p2804
sVgnome-tweak-tool
p2805
g45
sVkdiff3
p2806
S'kdiff3'
p2807
sS't-mobile'
p2808
S't-mobile'
p2809
sVgmrun
p2810
S'gmrun'
p2811
sVfirmare
p2812
S'firmware'
p2813
sVhfsplus
p2814
S'hfsplus'
p2815
sVoragne
p2816
g1495
sVcmatrix
p2817
g2120
sVfilemanagers
p2818
g1211
sV/sh
p2819
g187
sS'wt'
p2820
g2820
sS'ws'
p2821
g2821
sVpreprocessor
p2822
g2822
sVxchat
p2823
g335
sVtftp
p2824
S'tftp'
p2825
sg1432
g1432
sVkdesdk
p2826
S'kdesdk'
p2827
sVlinux-image-generic-pae
p2828
g137
sVpython-doc
p2829
g485
sVvlc-plugin-esd
p2830
S'mozilla-devscripts'
p2831
sVmencoder
p2832
g1243
sVtwidge
p2833
S'twidge'
p2834
sVflubuntu
p2835
g185
sVtpconfig
p2836
g1627
sg1705
g1705
sVrhythmobox
p2837
g749
sVaix
p2838
g2838
sVgnu
p2839
S'gnu'
p2840
sVhostapd
p2841
S'hostapd'
p2842
sVzlib
p2843
S'zlibc'
p2844
sS'air'
p2845
g2845
sVaim
p2846
g100
sVefax-gtk
p2847
S'efax'
p2848
sVcons
p2849
S'cons'
p2850
sVdizzy
p2851
S'dizzy'
p2852
sVexile
p2853
S'exaile'
p2854
sS'warthog'
p2855
S'ubuntu_4.10'
p2856
sVstint
p2857
g2129
sVffmeg
p2858
S'ffmpeg'
p2859
sVcouchdb
p2860
S'couchdb'
p2861
sVadesklet
p2862
g1017
sVextremes
p2863
g718
sVmcse
p2864
g2864
sVbuild-esential
p2865
g1647
sS'nic'
p2866
S'nic'
p2867
sVtritum
p2868
S'tritium'
p2869
sVgoogleearth-package
p2870
S'googleearth-package'
p2871
sVfuse
p2872
S'fuse'
p2873
sVfusa
p2874
g2873
sVnis
p2875
S'nis'
p2876
sVngrep
p2877
g1543
sVrrdtool
p2878
S'rrdtool'
p2879
sVayttm
p2880
S'ayttm'
p2881
sVpython-mutagen
p2882
g485
sVkyle
p2883
S'kile'
p2884
sVmodule-init-tools
p2885
g2397
sVudisks
p2886
S'udisks'
p2887
sVmusical
p2888
S'musica'
p2889
sVkale
p2890
S'kate'
p2891
sVp7zip-full
p2892
S'p7zip'
p2893
sVnotify-send
p2894
g1873
sVrepose
p2895
g1686
sVxcompmgr
p2896
S'xcompmgr'
p2897
sS'8.10'
p2898
g1844
sVcompiz-plugins
p2899
g230
sVopencl
p2900
g2619
sS'shout'
p2901
g2901
sVspread
p2902
S'spread'
p2903
sVgnome-gmail
p2904
g45
sS'plasma'
p2905
g2905
sVjiger
p2906
S'tiger'
p2907
sVrepos)
p2908
g1686
sVdirver
p2909
S'driver'
p2910
sVcaps
p2911
S'caps'
p2912
sS'lcd'
p2913
S'lcd'
p2914
sS'groep'
p2915
S'groep'
p2916
sVeuid
p2917
g2436
sVmis
p2918
g2918
sVsparse
p2919
S'sparse'
p2920
sVscreeen
p2921
g290
sVantique
p2922
g2922
sVrxvt
p2923
g2371
sVgnome-desktop
p2924
g1443
sVoidua
p2925
S'oidua'
p2926
sVhighligh
p2927
g2325
sS'purple'
p2928
g2928
sVgtk2-engines-pixbuf
p2929
g753
sVpeek
p2930
g2930
sS'repository'
p2931
g2931
sVwups
p2932
g53
sVtasksel
p2933
g9
sVtaskset
p2934
g9
sVpyrenamer
p2935
S'pyrenamer'
p2936
sVphex
p2937
g1185
sS'gartner'
p2938
S'gartner'
p2939
sVkdesudo
p2940
g2164
sVecryptfs-utils
p2941
S'ecryptfs-utils'
p2942
sVxfce
p2943
S'xfce'
p2944
sVtint2
p2945
g2129
sVpulse-audio
p2946
g43
sS'device'
p2947
S'device'
p2948
sVhaskell
p2949
g2949
sVbalanced
p2950
S'balance'
p2951
sVloic
p2952
g373
sVjdbc
p2953
Vodbc
p2954
sVmstcorefonts
p2955
g845
sVredmine
p2956
S'redmine'
p2957
sVtcpdump
p2958
S'tcpdump'
p2959
sVcedega)
p2960
Vcedega
p2961
sVencoder
p2962
g1243
sVptrace
p2963
g2555
sVemulater
p2964
g96
sVpython-gnome2
p2965
g485
sVgnunet
p2966
S'gnunet'
p2967
sVmtr
p2968
S'mtr'
p2969
sS'mtp'
p2970
g2970
sVgchat
p2971
g335
sVtelenet
p2972
g410
sVstrace
p2973
g2555
sVplymouth
p2974
S'plymouth'
p2975
sVmaximus
p2976
S'maximus'
p2977
sVautofs
p2978
S'autofs'
p2979
sVmta
p2980
g1133
sVconfig)
p2981
g814
sVmails
p2982
S'mailx'
p2983
sVconfig*
p2984
g814
sVconfig-
p2985
g814
sVconfig/
p2986
g814
sVmailx
p2987
g2983
sVpostscript
p2988
S'postscript'
p2989
sVzsnes
p2990
S'zsnes'
p2991
sVflightgear
p2992
S'flightgear'
p2993
sVmrxvt
p2994
g2371
sVubuntu-restriced-extras
p2995
g2008
sVlibcompress-zlib-perl
p2996
S'libcompress-bzip2-perl'
p2997
sVkvm
p2998
S'kvm'
p2999
sVconfige
p3000
g814
sS'concurrent'
p3001
g3001
sVxserver-xorg-dev
p3002
g831
sVlivcd
p3003
g98
sV#rsync
p3004
g267
sVlibgcc1
p3005
S'libgcc1'
p3006
sVflac
p3007
S'flac'
p3008
sS'fox'
p3009
g3009
sVglobal
p3010
S'global'
p3011
sVlightspark
p3012
S'lightspark'
p3013
sVbitpim
p3014
S'bitpim'
p3015
sS'graph'
p3016
g3016
sVhump
p3017
g162
sVesd&
p3018
S'esound'
p3019
sVjvm
p3020
g3020
sVmkisofs
p3021
S'mkisofs'
p3022
sVxpra
p3023
S'xpra'
p3024
sVdirectx9
p3025
g2072
sVgub
p3026
g863
sVgnucash
p3027
S'gnucash'
p3028
sVrutilt
p3029
S'rutilt'
p3030
sS'dockingstation'
p3031
S'dockingstation'
p3032
sVfuncional
p3033
Vfunctional
p3034
sVdiscover
p3035
S'discover'
p3036
sVphpunit
p3037
S'phpunit'
p3038
sVhtp
p3039
S'htp'
p3040
sVdbs
p3041
S'dbs'
p3042
sVunhide
p3043
S'unhide'
p3044
sVrelational
p3045
S'relational'
p3046
sVapache2-prefork-dev
p3047
g2782
sVpostcript
p3048
g2988
sVboot-sector
p3049
g578
sVindicator-messages
p3050
g263
sVgawk
p3051
S'gawk'
p3052
sVdosbox
p3053
S'dosbox'
p3054
sS'plotter'
p3055
S'plotter'
p3056
sVgadmin-samba
p3057
S'gadmin-bind'
p3058
sg1012
g1012
sS'9.10'
p3059
g1782
sVfilezilla
p3060
S'filezilla'
p3061
sVubufox
p3062
S'ubufox'
p3063
sVskype)
p3064
g2773
sVfbi
p3065
S'fbi'
p3066
sVcharater
p3067
g429
sS'regex'
p3068
S'regexp'
p3069
sVhttpd
p3070
g618
sVtransmission-gtk
p3071
g2438
sVemacsen-common
p3072
S'emacsen'
p3073
sVskypes
p3074
g2773
sVtudo
p3075
g1115
sVterminators
p3076
g563
sS'ibm'
p3077
S'ibm'
p3078
sVcar
p3079
g3079
sS'cap'
p3080
g3080
sVpptview
p3081
S'pptview'
p3082
sVcam
p3083
g282
sS'cal'
p3084
g3084
sVcae
p3085
g3085
sVcad
p3086
S'qcad'
p3087
sVlightdm
p3088
S'lightdm'
p3089
sVdkpg
p3090
g1534
sS'wacom'
p3091
g3091
sVfortunes
p3092
S'fortune'
p3093
sVkmediafactory
p3094
S'kmediafactory'
p3095
sVpurity
p3096
S'purity'
p3097
sVspe
p3098
S'spe'
p3099
sVunrar-nonfree
p3100
g21
sVwpa_suplicant
p3101
g576
sVmemtest+
p3102
g898
sVspreads
p3103
g2903
sS'graphiccard'
p3104
g3104
sVnonstop
p3105
g3105
sVdektop
p3106
g2714
sVgftp-text
p3107
S'gftp'
p3108
sS'pqr'
p3109
S'pqr'
p3110
sVheroes
p3111
S'heroes'
p3112
sVlibpam0g-dev
p3113
S'libpam0g'
p3114
sVgconf2
p3115
S'dconf'
p3116
sVlogwatch
p3117
S'logwatch'
p3118
sVgnome-btdownload
p3119
g45
sS'flashdrive'
p3120
S'flashdrive'
p3121
sVmemtests
p3122
g898
sVkde-core
p3123
g440
sVghc
p3124
S'ghc'
p3125
sVgconf-
p3126
g3116
sVkbuntu
p3127
g1387
sVapprox
p3128
g812
sVgraphviz
p3129
S'graphviz'
p3130
sVgfxboot
p3131
S'gfxboot'
p3132
sVnitrogen
p3133
S'nitrogen'
p3134
sVtftpd
p3135
g932
sS'ieee'
p3136
S'ieee'
p3137
sVtotme
p3138
g1890
sVenna
p3139
S'enna'
p3140
sVvpn)
p3141
g2134
sVcurly
p3142
S'curl'
p3143
sVarduino
p3144
S'arduino'
p3145
sS'forms'
p3146
g3146
sVjpilot
p3147
g341
sVicedtea-plugin
p3148
S'icedtea-6-jre-cacao'
p3149
sS'ddr2'
p3150
S'ddr2'
p3151
sS'ddr3'
p3152
S'ddr3'
p3153
sVchntpw
p3154
S'chntpw'
p3155
sVcompbiz
p3156
g230
sVtransmissions
p3157
g2438
sVhald
p3158
g481
sVgeddit
p3159
g857
sVbrltty
p3160
S'brltty'
p3161
sVloop-aes-utils
p3162
S'loop-aes-utils'
p3163
sVvpnc
p3164
g2134
sVguitarix
p3165
S'guitarix'
p3166
sVazurus
p3167
g139
sS'degauss'
p3168
S'degauss'
p3169
sVeggdrop
p3170
g1732
sVvpns
p3171
g2134
sVcairo
p3172
S'cairo'
p3173
sVanubis
p3174
S'anubis'
p3175
sVkane
p3176
g595
sVudftools
p3177
S'udftools'
p3178
sV#microsoft
p3179
g1569
sValbum
p3180
g455
sS'sysfs'
p3181
g3181
sVclaws-mail
p3182
S'claws-mail'
p3183
sg2480
g2480
sVtexmaker
p3184
S'texmaker'
p3185
sV-auth
p3186
g1153
sVgnumeric
p3187
S'gnumeric'
p3188
sVe3
p3189
S'e3'
p3190
sVlibruby
p3191
S'libruby'
p3192
sVessid
p3193
g318
sVansys
p3194
g3194
sVekiga
p3195
g2773
sVxbmc
p3196
S'xbmc'
p3197
sVcatridge
p3198
g2458
sVpython-software-properties
p3199
g485
sVmtools
p3200
S'mtools'
p3201
sVarora
p3202
S'arora'
p3203
sS'expansioncard'
p3204
S'expansioncard'
p3205
sS'xv'
p3206
g3206
sVlm-sensors
p3207
S'lm-sensors'
p3208
sVbookmark
p3209
g3209
sVpusleaudio
p3210
S'pulseaudio'
p3211
sVrdiff
p3212
g388
sVpaman
p3213
g1723
sVgnome-
p3214
g45
sVcourier
p3215
S'courier-authdaemon'
p3216
sS'laserprinter'
p3217
S'laserprinter'
p3218
sVhttp://localhost/phpmyadmin
p3219
S'phpmyadmin'
p3220
sVx2
p3221
S'x2'
p3222
sVdesktop-base
p3223
S'desktop-base'
p3224
sVpecl
p3225
g243
sVgptsync
p3226
S'gptsync'
p3227
sVscalpel
p3228
S'scalpel'
p3229
sVpm-utils
p3230
S'pm-utils'
p3231
sVx2vnc
p3232
S'x2vnc'
p3233
sVtor-geoipdb
p3234
S'tor'
p3235
sVsetserial
p3236
S'setserial'
p3237
sVwebhttrack
p3238
S'webhttrack'
p3239
sVloki
p3240
S'loki'
p3241
sVcpuid
p3242
S'cpuid'
p3243
sVgftp-common
p3244
g3108
sVfrefox
p3245
g220
sVsrceen
p3246
g290
sVrtai
p3247
S'rtai'
p3248
sVxmss
p3249
g2709
sVxfce4-mixer
p3250
g1172
sS'isense'
p3251
S'isense'
p3252
sVkonsole
p3253
S'konsole'
p3254
sVcedga
p3255
g2961
sVjedit
p3256
S'jedit'
p3257
sVtooth
p3258
S'booth'
p3259
sVsimlink
p3260
g1230
sVgobject
p3261
Vobject
p3262
sVmrb
p3263
S'mrb'
p3264
sVirc)
p3265
g352
sVirc*
p3266
g352
sS'brouter'
p3267
S'brouter'
p3268
sVsamhain
p3269
S'samhain'
p3270
sVemulator)
p3271
g96
sV7-zip
p3272
g3272
sVswapspace
p3273
S'swapspace'
p3274
sVgnat
p3275
g2723
sVfirstarter
p3276
g406
sVsnack
p3277
g1601
sVethtool
p3278
S'ethtool'
p3279
sVircd
p3280
g1257
sVemulators
p3281
g2991
sS'usbhid'
p3282
g3282
sVircu
p3283
g352
sVpostgress
p3284
g2538
sVircs
p3285
g352
sVsynapse
p3286
S'synapse'
p3287
sVsmplayer
p3288
S'smplayer'
p3289
sVxfree86
p3290
g3290
sVkaffiene
p3291
g1303
sVc++
p3292
g1863
sVdvd-rip
p3293
S'dvdrip'
p3294
sVnet-tools
p3295
S'net-acct'
p3296
sVcolordiff
p3297
S'colordiff'
p3298
sVtightvncviewer
p3299
g420
sVcontab
p3300
g1466
sVpython-compizconfig
p3301
g485
sVadd-in
p3302
g3302
sVrephrase
p3303
S'rephrase'
p3304
sVgnome-user-share
p3305
g45
sVcairo-clock
p3306
S'cairo-clock'
p3307
sVdvdbackup
p3308
S'dvdbackup'
p3309
sVixus
p3310
g987
sVmeta-package
p3311
g1443
sVmythweb
p3312
S'mythweb'
p3313
sVyumi
p3314
S'yum'
p3315
sVnvidea
p3316
S'nvidia'
p3317
sVipodder
p3318
S'gpodder'
p3319
sVx86info
p3320
S'x86info'
p3321
sS'vram'
p3322
S'vram'
p3323
sVgvfsd
p3324
g1699
sS'pixels'
p3325
g3325
sVlogons
p3326
g368
sVgnome-color-chooser
p3327
g45
sVmailgraph
p3328
S'mailgraph'
p3329
sVagetty
p3330
S'mgetty'
p3331
sVazureas
p3332
g139
sVcharecter
p3333
g429
sS'cardreader'
p3334
S'cardreader'
p3335
sVhvm
p3336
g2999
sVpoppler-utils
p3337
S'poppler-data'
p3338
sVbinchunker
p3339
g1412
sVjpegs
p3340
S'jpeg'
p3341
sVccd2iso
p3342
S'ccd2iso'
p3343
sVhiglight
p3344
g2325
sVsamaba
p3345
S'samba'
p3346
sVkdevelop3
p3347
S'kdevelop'
p3348
sVelvis
p3349
S'elvis'
p3350
sVrephrased
p3351
g3304
sVgnuchess
p3352
S'gnuchess'
p3353
sVungzip
p3354
g1906
sV`sudo
p3355
g1115
sVadm64
p3356
S'amd64'
p3357
sVshockwave
p3358
g3358
sV#cairo-dock
p3359
g3307
sVnetpbm
p3360
S'netpbm'
p3361
sV0ad
p3362
S'0ad'
p3363
sS'siemens'
p3364
S'siemens'
p3365
sVjoy2key
p3366
S'joy2key'
p3367
sVtexlive-base
p3368
g392
sVutils
p3369
S'util'
p3370
sVsuso
p3371
g1115
sVzenity
p3372
S'zenity'
p3373
sVtexinfo
p3374
S'texinfo'
p3375
sVkdelibs-bin
p3376
g116
sVnividia
p3377
g3317
sS'iscsi'
p3378
g3378
sVtla
p3379
S'tla'
p3380
sVsweeper
p3381
S'sweeper'
p3382
sS'thunderbolt'
p3383
S'thunderbolt'
p3384
sVfruit
p3385
S'fruit'
p3386
sS'validate'
p3387
g3387
sV#ssh
p3388
g535
sVunrtf
p3389
S'unrtf'
p3390
sVcutecom
p3391
S'cutecom'
p3392
sS'breezy'
p3393
g102
sg1573
g1573
sVpptp-linux
p3394
S'pptp-linux'
p3395
sVextensible
p3396
g3396
sVnetwork-manager-kde
p3397
S'network-config'
p3398
sS'ccd'
p3399
S'ccd'
p3400
sVjoystick
p3401
S'joystick'
p3402
sVfrontpage
p3403
g3403
sVarmour
p3404
S'ardour'
p3405
sS'harddisk'
p3406
S'harddisk'
p3407
sVlibfreetype6-dev
p3408
g255
sVxcdroast
p3409
g816
sVwhiping
p3410
g1513
sVfcron
p3411
g1466
sg2714
g2714
sVsubversion
p3412
g661
sVverse
p3413
S'verse'
p3414
sVlibmysql++-dev
p3415
S'libmysql++-dev'
p3416
sVversa
p3417
g3414
sV/usr/local
p3418
g1759
sVswim
p3419
g1075
sVkxdocker
p3420
S'kdocker'
p3421
sVpsi
p3422
S'psi'
p3423
sS'amd'
p3424
S'amd'
p3425
sVinetd
p3426
S'xinetd'
p3427
sVpsx
p3428
g2991
sVmadplay
p3429
S'madplay'
p3430
sVams
p3431
S'ams'
p3432
sS'pst'
p3433
g3433
sVfortune
p3434
S'fortune'
p3435
sVnautalis
p3436
g437
sVopenjdk-6-jre-headless
p3437
S'openjdk-6-dbg'
p3438
sVdnsmasq
p3439
g643
sVgkdesu
p3440
g2164
sVgtk-window-decorator
p3441
g781
sVlibapache2-mod-python
p3442
g1546
sVchromium
p3443
S'chromium-browser'
p3444
sVsyaptic
p3445
g234
sVemeral
p3446
g781
sVntpl
p3447
S'ntp'
p3448
sVxpaint
p3449
g1803
sVntpd
p3450
g3448
sVvnc4viewer
p3451
g259
sVn64
p3452
g2991
sVassembly
p3453
g3453
sS'tdd'
p3454
S'tdd'
p3455
sVmandrake
p3456
g170
sVnmh
p3457
S'nmh'
p3458
sS'chipsoft'
p3459
S'chipsoft'
p3460
sVgmplayer
p3461
g1664
sVsrs
p3462
S'srs'
p3463
sVgump
p3464
g951
sVrythmnbox
p3465
g749
sS'processor'
p3466
S'processor'
p3467
sVheater
p3468
S'header'
p3469
sVtritium
p3470
g2869
sS'elementary'
p3471
g3471
sVwatchdog
p3472
S'watchdog'
p3473
sVkdocker
p3474
g3421
sg2619
g2619
sS'peak-it'
p3475
S'peak-it'
p3476
sVlibgnomevfs2-0
p3477
S'libgnomevfs2-0'
p3478
sS'los'
p3479
S'los'
p3480
sVstealth
p3481
S'stealth'
p3482
sS'hartman'
p3483
S'hartman'
p3484
sVwifi-radar
p3485
S'wifi-radar'
p3486
sVmypaint
p3487
S'mypaint'
p3488
sVgpixpod
p3489
S'gpixpod'
p3490
sS'fsb'
p3491
S'fsb'
p3492
sVlinux-wlan-ng
p3493
S'linux-wlan-ng'
p3494
sVmultitasking
p3495
g3495
sVkernel-headers
p3496
g1062
sVgphoto2
p3497
g1176
sVvirtuabox
p3498
g370
sVscanner
p3499
S'scanner'
p3500
sVircds
p3501
g1257
sVpdftohtml
p3502
S'pdftohtml'
p3503
sV#mount
p3504
g603
sVvitrualbox
p3505
g370
sVogmrip
p3506
S'ogmrip'
p3507
sVdameon
p3508
g257
sVdarkice
p3509
S'darkice'
p3510
sVndisgtk
p3511
S'ndisgtk'
p3512
sVespeak
p3513
S'espeak'
p3514
sVdrift
p3515
S'drift'
p3516
sVboinc
p3517
S'boinc'
p3518
sVnvidia-settins
p3519
g265
sS'dnsservers'
p3520
S'dnsserver'
p3521
sVlookups
p3522
g1588
sVpulseaudio
p3523
g3211
sS'kvmswitch'
p3524
S'kvmswitch'
p3525
sS'secondarystorage'
p3526
S'secondarystorage'
p3527
sS'bus'
p3528
S'bus'
p3529
sVjava-common
p3530
g344
sS'mp4'
p3531
g3531
sV-ffmpeg
p3532
g2859
sVrhythymbox
p3533
g749
sVmprime
p3534
g949
sVobsd
p3535
g1898
sVgbps
p3536
g2547
sVxserver-xorg
p3537
g831
sS'iconv'
p3538
g3538
sVdeja-dup
p3539
S'deja-dup'
p3540
sV#ffmpeg
p3541
g2859
sVwmv
p3542
g800
sVfglrx-control
p3543
g208
sVamule
p3544
S'amule'
p3545
sVapport
p3546
S'apport'
p3547
sVnodes
p3548
g1857
sVwmf
p3549
S'wmf'
p3550
sS'wme'
p3551
S'wme'
p3552
sVthoggen
p3553
S'thoggen'
p3554
sVmpd
p3555
S'mpd'
p3556
sVxfonts-100dpi
p3557
g561
sVmpc
p3558
S'mpc'
p3559
sVxfce4
p3560
g1172
sVmpi
p3561
S'mpi'
p3562
sVmps
p3563
g3563
sVxfce)
p3564
g1434
sV/etc/default/grub/
p3565
g33
sVguake`
p3566
g900
sVreformatt
p3567
g859
sVreformats
p3568
g859
sVgrub-installer
p3569
g863
sVushare
p3570
g2510
sVdrupal5
p3571
Vdrupal
p3572
sVsanne
p3573
g595
sVdrupal6
p3574
g3572
sVdosfstools
p3575
S'dosfstools'
p3576
sVqt4-qtconfig
p3577
S'qt-assistant-compat'
p3578
sVsquashfs-tools
p3579
S'squashfs-modules'
p3580
sVmozilla-mplayer
p3581
g1890
sVcues
p3582
g53
sVnano
p3583
g304
sVxsensors
p3584
g195
sVsensors-applet
p3585
S'sensors-applet'
p3586
sVjedi
p3587
g3257
sVklogd
p3588
S'klogd'
p3589
sS'simcard'
p3590
S'simcard'
p3591
sS'rdram'
p3592
S'rdram'
p3593
sVpolipo
p3594
S'polipo'
p3595
sVbitlebee
p3596
S'bitlbee'
p3597
sVempathy-common
p3598
S'empathy'
p3599
sVdnsutils
p3600
S'dnsutils'
p3601
sVscreensave
p3602
g483
sVcreeps
p3603
g529
sVgnome-rdp
p3604
g45
sVcapplets-data
p3605
S'capplets-data'
p3606
sVcreepy
p3607
g529
sVautotools-dev
p3608
S'autotools-dev'
p3609
sS'cookie'
p3610
g3610
sVkontact
p3611
S'kontact'
p3612
sS'jre'
p3613
g3613
sVnautilus-script-collection-svn
p3614
g437
sVxrdp
p3615
g90
sS'amazon.com'
p3616
S'amazon.com'
p3617
sVdd_rescue
p3618
g1753
sVgadmin-proftpd
p3619
g3058
sg106
g106
sS'compactflash'
p3620
S'compactflash'
p3621
sVnetwork-manager-pptp
p3622
g3398
sVemmulation
p3623
g846
sVrevelation
p3624
S'revelation'
p3625
sVgltron
p3626
S'gltron'
p3627
sV-lm
p3628
Vlinker
p3629
sVtzdata
p3630
S'tzdata'
p3631
sVkmix
p3632
S'kmix'
p3633
sVturbo
p3634
g3634
sVdarkstat
p3635
S'darkstat'
p3636
sVportmap
p3637
S'portmap'
p3638
sVhugin
p3639
S'hugin'
p3640
sVpstoedit
p3641
S'pstoedit'
p3642
sVmacho
p3643
g591
sVrutorrent
p3644
S'rtorrent'
p3645
sVntlmaps
p3646
S'ntlmaps'
p3647
sVsmurf
p3648
S'surf'
p3649
sVlincity
p3650
S'lincity'
p3651
sVtotem-mozilla
p3652
g1890
sVmouint
p3653
g603
sVtranscend
p3654
S'transcend'
p3655
sVnautilus
p3656
g437
sVkasper
p3657
g1181
sVkrandr
p3658
g692
sVspreadsheet
p3659
S'spreadsheet'
p3660
sVhivernate
p3661
g25
sVv4l-conf
p3662
S'v4l-conf'
p3663
sVgasp
p3664
S'gap'
p3665
sVhorizontal
p3666
g3666
sS'fm'
p3667
g3667
sS'workstation'
p3668
S'workstation'
p3669
sVdvd95
p3670
S'dvd-slideshow'
p3671
sVdeluge
p3672
S'deluge'
p3673
sVlibmysqlclient-dev
p3674
S'libmysqlclient-dev'
p3675
sVpowertop
p3676
S'powertop'
p3677
sVi368
p3678
g1423
sVinline
p3679
S'inline'
p3680
sS'scsi'
p3681
S'scsi'
p3682
sVegg
p3683
S'egg'
p3684
sVcrafty
p3685
S'crafty'
p3686
sS'narwhal'
p3687
S'ubuntu_11.04'
p3688
sS'feed'
p3689
g3689
sVatsc
p3690
S'asc'
p3691
sV#amarok
p3692
g985
sVgdmflexiserver
p3693
S'xnest'
p3694
sVejects
p3695
S'eject'
p3696
sVcowsay
p3697
S'cowsay'
p3698
sVpicard
p3699
S'picard'
p3700
sS'heron'
p3701
S'ubuntu_8.04'
p3702
sS'kde4'
p3703
g3703
sVkde*
p3704
S'kdm'
p3705
sVkde)
p3706
g3705
sVkde/
p3707
g3705
sVlirc
p3708
g2334
sVvalknut
p3709
S'valknut'
p3710
sVepiphany-extensions
p3711
g66
sVauthorized_keys2
p3712
g535
sVpsswd
p3713
g827
sVsssh
p3714
g535
sVghostscript
p3715
S'ghostscript'
p3716
sV#sql
p3717
g1712
sVgreps
p3718
g1543
sVfileroller
p3719
g1375
sVninja
p3720
S'ninja'
p3721
sg98
S'livecd'
p3722
sV/sysinfo
p3723
S'sysinfo'
p3724
sVfaire
p3725
S'fair'
p3726
sVifs
p3727
g892
sVkdes
p3728
g3705
sVvcodec
p3729
g1851
sV#amsn
p3730
g100
sVbless
p3731
g306
sVscreencast
p3732
g753
sV-nolisten
p3733
g1153
sVkded
p3734
g3705
sV/mount
p3735
g603
sVqbittorrent
p3736
g49
sValsa-firmware-loaders
p3737
g1956
sS'event'
p3738
g3738
sVmysq
p3739
g2538
sVmpmc
p3740
g733
sVasp
p3741
S'asp'
p3742
sVearns
p3743
S'ears'
p3744
sVreco
p3745
g1686
sVmysql-server-
p3746
g2644
sVpub
p3747
g535
sVasc
p3748
g3691
sVlaby
p3749
Vlazy
p3750
sVash
p3751
S'ash'
p3752
sVasm
p3753
S'asm'
p3754
sg3572
g3572
sS'minicomputer'
p3755
S'minicomputer'
p3756
sVlivdcd
p3757
g98
sVtcpick
p3758
S'tcpick'
p3759
sVpython-nautilus
p3760
g485
sVheartbeat
p3761
S'heartbeat'
p3762
sVblush
p3763
g2392
sVtranmission
p3764
g2438
sV#clonezilla
p3765
g1673
sVlibopenssl-ruby
p3766
S'libopenssl-ruby'
p3767
sS'warty'
p3768
g2856
sVkde-standard
p3769
S'kde-artwork-active'
p3770
sS'schuberg'
p3771
S'schuberg'
p3772
sVpidentd
p3773
S'pidentd'
p3774
sVlibcairo2
p3775
S'libcairo-dev'
p3776
sVrawr
p3777
g1346
sVrecursively
p3778
Vrecursive
p3779
sVresier
p3780
g892
sS'tft'
p3781
S'tft'
p3782
sVflgxr
p3783
g208
sVtransmission-cli
p3784
g2438
sVjquery
p3785
Vquery
p3786
sVgrep
p3787
g1543
sVffmpeg
p3788
g2859
sVstl
p3789
g3789
sVlibpam-keyring
p3790
g711
sVopenjdk-6-jre
p3791
g3438
sS'utopic'
p3792
S'ubuntu_14.10'
p3793
sVgreg
p3794
g1543
sVgreb
p3795
g863
sVreportbug
p3796
S'reportbug'
p3797
sVgps
p3798
S'gps'
p3799
sVlinux-image*
p3800
g137
sVlinux-image-
p3801
g137
sVgvim
p3802
S'gvim'
p3803
sVgedit
p3804
g857
sVairstrike
p3805
S'airstrike'
p3806
sVkolourpaint4
p3807
S'kolourpaint4'
p3808
sVlie
p3809
S'lie'
p3810
sVflashplugin-downloader
p3811
g607
sVtshark
p3812
S'tshark'
p3813
sVssh-client
p3814
g535
sVtrance
p3815
g1532
sVflashplayer-nonfree
p3816
g607
sVprolink
p3817
g2780
sS'ibex'
p3818
g1844
sVlis
p3819
g3819
sS'ncr'
p3820
S'ncr'
p3821
sVcaliber
p3822
S'calibre'
p3823
sVquota
p3824
S'quota'
p3825
sVubuntu-restricted-extras
p3826
g2008
sg1745
g1745
sVwpa-supplicant
p3827
g576
sVmuscle
p3828
S'muscle'
p3829
sVbzr
p3830
S'bzr'
p3831
sV/dev
p3832
g1122
sVpostgre
p3833
g2538
sVbleutooth
p3834
S'bluetooth'
p3835
sVasci
p3836
g1027
sVscilab
p3837
S'scilab'
p3838
sVcommericial
p3839
Vcommercial
p3840
sVregisterd
p3841
g1416
sVregistery
p3842
g1416
sValbums
p3843
g455
sVdovecot
p3844
g1133
sVcopyright
p3845
g3845
sVsendemail
p3846
S'sendmail'
p3847
sS'paranoid'
p3848
g3848
sVncmpc
p3849
S'ncmpc'
p3850
sVrandr
p3851
S'arandr'
p3852
sVnvidia-173
p3853
g265
sV#ubuntu-effects
p3854
g230
sVntfs-3
p3855
g884
sVhotmail
p3856
g609
sS'meanwhile'
p3857
g3857
sVmadrake
p3858
g170
sS'evdev'
p3859
g3859
sVtrees
p3860
g241
sS'802.xx'
p3861
S'802.xx'
p3862
sVdaemons
p3863
g257
sVphpsysinfo
p3864
S'phpsysinfo'
p3865
sVumount
p3866
S'umount'
p3867
sVgtk2-engines-murrine
p3868
g753
sVmp3splt
p3869
S'mp3splt'
p3870
sVintergration
p3871
Vintegration
p3872
sVgftp
p3873
g3108
sVaims
p3874
g100
sVcheck-install
p3875
S'checkinstall'
p3876
sVgtk-gnutella
p3877
g753
sV#transmission
p3878
g2438
sVhardlink
p3879
S'hardlink'
p3880
sS'kindle'
p3881
S'kindle'
p3882
sVhotkey
p3883
g1458
sVzipper
p3884
S'ripperx'
p3885
sVhardline
p3886
g3880
sS'oneiric'
p3887
g386
sVlibc6-dev-i386
p3888
g1099
sV#drupal
p3889
g3572
sVscaner
p3890
g2067
sVunclutter
p3891
S'unclutter'
p3892
sVsauerbraten
p3893
g364
sS'experimental'
p3894
g3894
sVskipe
p3895
g2773
sVgnome-shell
p3896
g45
sS'linux'
p3897
g3897
sVqsynaptics
p3898
g234
sVmumble
p3899
g2034
sVqtorrent
p3900
g457
sVusbmuxd
p3901
S'usbmuxd'
p3902
sVloggin
p3903
g368
sVtightvnc-java
p3904
S'tightvnc-java'
p3905
sVbuisness
p3906
Vbusiness
p3907
sVgpartd
p3908
g1034
sVquicktimes
p3909
Vquicktime
p3910
sVgmount-iso
p3911
S'gmountiso'
p3912
sVfirefox-dbg
p3913
g220
sVkorganizer
p3914
S'korganizer'
p3915
sV/sdb1
p3916
g191
sVsysprof
p3917
S'sysprof'
p3918
sVinspircd
p3919
S'inspircd'
p3920
sVmulti-boot
p3921
S'multiboot'
p3922
sS'mainframe'
p3923
S'mainframe'
p3924
sVlibxine1-ffmpeg
p3925
S'libxine-dev'
p3926
sVpython-gtk2-dev
p3927
g485
sVtripwire
p3928
S'tripwire'
p3929
sVip's,
p3930
g469
sVxkb-data
p3931
S'xkb-data'
p3932
sVjpg
p3933
g3341
sVkonverastion
p3934
S'konversation'
p3935
sVskype
p3936
g2773
sVgimp
p3937
g951
sS'fedora'
p3938
g3938
sVpmount-hal
p3939
S'pmount'
p3940
sS'dimm'
p3941
S'dimm'
p3942
sVsocks5
p3943
S'tsocks'
p3944
sVsocks4
p3945
g3944
sVhfsprogs
p3946
S'hfsprogs'
p3947
sVlibparted
p3948
S'libparted'
p3949
sVmountmanager
p3950
S'mountmanager'
p3951
sVsynopsis
p3952
S'synopsis'
p3953
sVparalell
p3954
g1031
sVgnome-alsamixer
p3955
g45
sVuptables
p3956
g1048
sVgnome-session-fallback
p3957
g45
sVmakepasswd
p3958
S'makepasswd'
p3959
sVwise)
p3960
g2197
sVilbc
p3961
g1099
sVcocky
p3962
g1234
sVtuxracer
p3963
S'neverball'
p3964
sVveiwer
p3965
Vviewer
p3966
sVpixmaps
p3967
g798
sVmarco
p3968
g591
sS'xinerama'
p3969
g3969
sVxterm
p3970
g1005
sV#openbsd
p3971
Vopenbsd
p3972
sVnginx
p3973
S'nginx'
p3974
sV#emacs
p3975
g487
sVlibgnome2-0
p3976
S'libgnome-bluetooth-dev'
p3977
sVgaim)
p3978
g944
sVgaim-
p3979
g944
sVactivex
p3980
g3980
sVtranslates
p3981
S'translate'
p3982
sVsmtp.gmail.com
p3983
g118
sVtranslated
p3984
g3982
sVbitlbee
p3985
g3597
sV`gpg
p3986
g1896
sVfirefox-4
p3987
g220
sVmplayer-fonts
p3988
g1664
sVfirefox-3
p3989
g220
sV*zip
p3990
g1988
sVinkscape
p3991
S'inkscape'
p3992
sVtexi2html
p3993
S'texi2html'
p3994
sVsylpheed
p3995
S'sylpheed'
p3996
sVnouveau-firmware
p3997
S'nouveau-firmware'
p3998
sVid3
p3999
S'id3'
p4000
sVxane
p4001
g398
sVcgi
p4002
S'cgi'
p4003
sVgdesklet
p4004
g1017
sS'at&t'
p4005
S'at&t'
p4006
sVlibxml-parser-perl
p4007
g2315
sVmssql
p4008
g2538
sVsawfish
p4009
S'sawfish'
p4010
sVgnome
p4011
g45
sVistanbull
p4012
S'istanbul'
p4013
sVidn
p4014
S'idn'
p4015
sVnvclock
p4016
g1579
sS'messaging'
p4017
g4017
sg1786
S'ide'
p4018
sVcrack-attack
p4019
g2365
sVqparted
p4020
g1382
sS'14.10'
p4021
g3793
sVlinux-images
p4022
g137
sVsnmpd
p4023
S'snmp'
p4024
sS'statistics'
p4025
g4025
sVlinux-server
p4026
S'linux-server'
p4027
sVmainpage
p4028
g1051
sVperv
p4029
Vper
p4030
sVcolortail
p4031
S'colortail'
p4032
sVscreen-saver
p4033
g483
sVgammaray
p4034
S'gammaray'
p4035
sS'visio'
p4036
g4036
sV/grub
p4037
g863
sVnspluginwrapper
p4038
S'nspluginwrapper'
p4039
sS'scope'
p4040
g4040
sVutf
p4041
g1043
sg796
g796
sVmiddleware
p4042
g4042
sVfdm
p4043
S'fdm'
p4044
sVrsyn
p4045
g267
sVheterogeneous
p4046
g4046
sVdevfs
p4047
S'devfs'
p4048
sVkvirc
p4049
g622
sVcharacteres
p4050
g429
sVdefault-jre
p4051
S'default-jdk'
p4052
sVnam
p4053
S'nam'
p4054
sVnas
p4055
S'nas'
p4056
sVnap
p4057
S'nap'
p4058
sVfgrep
p4059
g1543
sVgenome
p4060
g45
sVnat
p4061
g2723
sVautocon
p4062
S'autoconf'
p4063
sVmongodb
p4064
S'mongodb'
p4065
sVanacron
p4066
S'anacron'
p4067
sVresign
p4068
g698
sVvelocity
p4069
S'velocity'
p4070
sS'dram'
p4071
S'dram'
p4072
sVsdsl
p4073
g182
sS'alcatel-lucent'
p4074
S'alcatel-lucent'
p4075
sVsvn
p4076
g661
sS'dvi'
p4077
S'dvi'
p4078
sVsvk
p4079
g4079
sS'svg'
p4080
g4080
sVshe'd
p4081
S'shed'
p4082
sS'dvb'
p4083
g4083
sVphonon
p4084
S'phonon'
p4085
sVgnome-specimen
p4086
g45
sVchsh
p4087
S'csh'
p4088
sS'dvr'
p4089
S'dvr'
p4090
sVlinux-header
p4091
g1062
sS'gs'
p4092
g4092
sVmythtv-frontend
p4093
g1190
sVdaemon)
p4094
g257
sS'gf'
p4095
g4095
sV#apache
p4096
g618
sS'gd'
p4097
g4097
sVvsftp
p4098
g1080
sVxinet
p4099
g398
sS'gl'
p4100
g4100
sVkate
p4101
S'kate'
p4102
sVhumanity-icon-theme
p4103
S'humanity-icon-theme'
p4104
sS'usb-c'
p4105
S'usb-c'
p4106
sVmono-develop
p4107
S'monodevelop'
p4108
sVpdas
p4109
g722
sVgnome-common
p4110
g45
sVpacpl
p4111
S'pacpl'
p4112
sVlibncurses-dev
p4113
g2157
sVanon-proxy
p4114
S'anon-proxy'
p4115
sVnautilus-send-to
p4116
g437
sVpulsaudio
p4117
g3211
sVmercurial
p4118
S'mercurial'
p4119
sVipkungfu
p4120
S'ipkungfu'
p4121
sVbooth
p4122
g3259
sVwmaker
p4123
g2018
sVxmlstarlet
p4124
S'xmlstarlet'
p4125
sVlibesd0
p4126
S'libesd-java'
p4127
sVsynatic
p4128
g234
sVrepro
p4129
g1686
sVlxrandr
p4130
g692
sVx386
p4131
g1423
sVkopete
p4132
S'kopete'
p4133
sVrpos
p4134
g1686
sVslmodem
p4135
S'slmodem'
p4136
sVkdebase-runtime
p4137
S'kdebase-apps'
p4138
sVdhcps
p4139
g1249
sVjoost
p4140
g707
sVboolean
p4141
S'boolean'
p4142
sVdhcpd
p4143
g1249
sVubuntu-deskop
p4144
g1443
sVgfvs
p4145
g1699
sVnfts-3g
p4146
g884
sVcloud
p4147
g4147
sVqdvdauthor
p4148
S'dvdauthor'
p4149
sS'windowscd'
p4150
g4150
sVbnetd
p4151
g3427
sVlxde-core
p4152
g185
sVhydra
p4153
S'hydra'
p4154
sS'camera'
p4155
S'camera'
p4156
sV#sane
p4157
g595
sVlibwnck-common
p4158
S'libwnck-3-0'
p4159
sVdhcp3
p4160
g1249
sVfirehol
p4161
S'firehol'
p4162
sVtangerine
p4163
S'tangerine'
p4164
sVdhcp)
p4165
g1249
sVxfce4-panel
p4166
g1172
sVhfsutils
p4167
S'hfsutils'
p4168
sVmdf2iso
p4169
g174
sVcartridges
p4170
g2458
sVcourier-imap
p4171
g3216
sVdepricated
p4172
Vdeprecated
p4173
sValsa-utils
p4174
g1956
sVsudi
p4175
g1115
sVkde-desktop
p4176
g440
sVsudu
p4177
g1115
sVsudp
p4178
g1115
sVflake
p4179
g735
sVlibasound2
p4180
S'libasound-dev'
p4181
sVegrep
p4182
g1543
sVvibe
p4183
S'vice'
p4184
sVlibgphoto2-2
p4185
S'libgphoto2-2'
p4186
sVfilemanager
p4187
g1211
sVpyqt
p4188
g4188
sVkonqeror
p4189
g572
sVxserver-xorg-input-synaptics
p4190
g831
sVgnoppix
p4191
g1496
sVnetcat
p4192
S'netcat'
p4193
sVncurses-term
p4194
S'ncurses-base'
p4195
sVxqf
p4196
S'xqf'
p4197
sVmdam
p4198
g2804
sVbochs
p4199
S'bochs'
p4200
sVx86)
p4201
g3357
sVacpid
p4202
S'acpid'
p4203
sVaiccu
p4204
S'aiccu'
p4205
sVlprng
p4206
S'lprng'
p4207
sVlib32asound2
p4208
S'lib32asound2'
p4209
sg967
g967
sVgpdf
p4210
g722
sS'esata'
p4211
S'esata'
p4212
sVscanmem
p4213
S'scanmem'
p4214
sVbluethooth
p4215
g3835
sVgimp-data
p4216
g951
sVwarzone2100
p4217
S'warzone2100'
p4218
sVacpi)
p4219
g2532
sVwpa_gui
p4220
g766
sS'sdcard'
p4221
g4221
sVfirfox
p4222
g220
sVcakephp
p4223
S'cakephp'
p4224
sVgpsbabel
p4225
S'gpsbabel'
p4226
sVabstrakt
p4227
Vabstract
p4228
sVaudacious2
p4229
g2709
sVgdebi
p4230
g2355
sVbluetooth
p4231
g3835
sVapparmour
p4232
S'apparmor'
p4233
sS'citrix'
p4234
S'citrix'
p4235
sVglobs
p4236
S'globs'
p4237
sVmat
p4238
S'mat'
p4239
sVxbindkeys-config
p4240
g1790
sVsynaptc
p4241
g234
sV#bzr
p4242
g3831
sVindicator-applets
p4243
g263
sVffmpg
p4244
g2859
sVlibgcrypt11
p4245
S'libgcrypt-dev'
p4246
sVhorizonal
p4247
g3666
sg1981
g1981
sVwicd
p4248
g1870
sVtouchegg
p4249
S'touchegg'
p4250
sS'ecc'
p4251
S'ecc'
p4252
sVumbrello
p4253
S'umbrello'
p4254
sVwinex
p4255
g2961
sVgnotime
p4256
S'gnotime'
p4257
sVcowbell
p4258
S'cowbell'
p4259
sV#mythtv
p4260
g1190
sVifuse
p4261
g2873
sVeterm
p4262
S'eterm'
p4263
sS'geometry'
p4264
g4264
sg4173
g4173
sVnautilus-image-converter
p4265
g437
sVpidgin*
p4266
g112
sVbootcamp
p4267
g442
sVlibapache2-mod-mono
p4268
g1546
sVlshw
p4269
S'lshw'
p4270
sS'art'
p4271
g4271
sVwrapper
p4272
S'wrapper'
p4273
sVqt4-qmake
p4274
g3578
sS'publickey'
p4275
g4275
sVlinux-sources
p4276
g63
sVpython-central
p4277
g485
sVwidgets
p4278
g59
sVkmail
p4279
S'kmail'
p4280
sVkworker
p4281
g408
sVsoundcards
p4282
g848
sVpidging
p4283
g112
sVyipe
p4284
g1513
sVrsh
p4285
g535
sVnfsd
p4286
S'nas'
p4287
sVslogin
p4288
g368
sVpidgins
p4289
g112
sS'fuzzy'
p4290
g4290
sVkdar
p4291
S'dar'
p4292
sVscummvm
p4293
S'scummvm'
p4294
sVrss
p4295
S'rss'
p4296
sVben
p4297
S'ben'
p4298
sVgksduo
p4299
g2529
sVteskdisk
p4300
g1859
sS'externalharddrive'
p4301
S'externalharddrive'
p4302
sVgnomebake
p4303
g816
sVkaffeine
p4304
g1303
sVbeefy
p4305
S'beef'
p4306
sVdh-make-perl
p4307
S'dh-ada-library'
p4308
sS'microphone'
p4309
S'microphone'
p4310
sVmp3splt-gtk
p4311
g3870
sVscree
p4312
g290
sVsinge
p4313
g1170
sVnetbean
p4314
S'netbeans'
p4315
sVdictionnary
p4316
S'dict'
p4317
sVtvtime
p4318
S'tvtime'
p4319
sVmongrel
p4320
S'mongrel'
p4321
sVunagi
p4322
S'unagi'
p4323
sVcamper
p4324
g1181
sVcompiz-fusion
p4325
g230
sVawn
p4326
g685
sVawk
p4327
g1681
sVmplayer
p4328
g1664
sVpython-pyopencl
p4329
g485
sVachilles
p4330
S'achilles'
p4331
sVinterpretter
p4332
g1314
sVgallery
p4333
S'gallery'
p4334
sVepub
p4335
g535
sVure
p4336
S'ure'
p4337
sVbluez-utils
p4338
g1469
sVscrren
p4339
g290
sVsdf1
p4340
g191
sVcolorcode
p4341
S'colorcode'
p4342
sVparked
p4343
g1382
sVhigh-level
p4344
g4344
sS'printserver'
p4345
S'printserver'
p4346
sVxvidcap
p4347
S'recordmydesktop'
p4348
sVcompizconfig-backend-gconf
p4349
g1022
sVsendmail
p4350
g3847
sVlibre
p4351
g4351
sVphp5-cgi
p4352
g624
sVgettys
p4353
g3331
sVksplice
p4354
S'ksplice'
p4355
sVmgt
p4356
S'mgt'
p4357
sVfceux
p4358
S'fceux'
p4359
sVunreacheable
p4360
g235
sVgrap
p4361
g1543
sVlibvorbis-dev
p4362
S'libvorbis-dbg'
p4363
sVdpg
p4364
g1534
sVperl5
p4365
g243
sVsience
p4366
g1170
sVgit-svn
p4367
g597
sVshh
p4368
g535
sVdpk
p4369
g1534
sVimwheel
p4370
S'imwheel'
p4371
sVgrub-splashimages
p4372
g863
sVexiv2
p4373
S'exiv2'
p4374
sVautocutsel
p4375
S'autocutsel'
p4376
sVlua
p4377
g2429
sV/etc/grub
p4378
g33
sValsa-base
p4379
g1956
sVrc*
p4380
S'rcs'
p4381
sVubuntu-minimal
p4382
S'ubuntu-minimal'
p4383
sVvim-full
p4384
g120
sVsniff
p4385
g2095
sVcoldfusion
p4386
g4386
sVmsfonts
p4387
g277
sVsinaptic
p4388
g234
sVwajig
p4389
S'wajig'
p4390
sVdhcp3-client
p4391
g2172
sS'iso9660'
p4392
g4392
sVgitk
p4393
g239
sVsyslinux
p4394
S'syslinux'
p4395
sVsara
p4396
g1786
sVyap
p4397
S'yap'
p4398
sVsreadahead
p4399
S'ureadahead'
p4400
sVgamepads
p4401
S'joystick'
p4402
sVksynaptics
p4403
g234
sVpuseaudio
p4404
g43
sVrsh-server
p4405
S'rsh-client'
p4406
sVvim-gui-common
p4407
g120
sVwinrar
p4408
g1988
sVgarmin
p4409
S'gamin'
p4410
sVttf-dejavu-core
p4411
g1264
sVremmina
p4412
S'remmina'
p4413
sVpekwm
p4414
S'pekwm'
p4415
sVrpms
p4416
S'rpm'
p4417
sVgisomount
p4418
S'gisomount'
p4419
sV#gaim
p4420
g944
sS'qualcomm'
p4421
S'qualcomm'
p4422
sVrepoes
p4423
g1686
sVclusterssh
p4424
S'clusterssh'
p4425
sg972
g972
sVcharachters
p4426
g429
sVkhelper
p4427
Vhelper
p4428
sS'surface'
p4429
S'surface'
p4430
sVsystem-config-kickstart
p4431
g15
sVphp5-imagick
p4432
g624
sVclosed-source
p4433
g1933
sVtabbed
p4434
S'tabbed'
p4435
sVwakeup
p4436
S'wakeup'
p4437
sVkiller
p4438
S'killer'
p4439
sS'pciexpress'
p4440
S'pciexpress'
p4441
sVamd_64
p4442
g3357
sVefax
p4443
g2848
sVspree
p4444
g290
sViceweasel
p4445
S'iceweasel'
p4446
sVphython
p4447
g485
sVlibdbus-glib-1-dev
p4448
g1979
sVbootstrapping
p4449
g4449
sS'ibmcompatible'
p4450
S'ibmcompatible'
p4451
sVweblog
p4452
g4452
sVriff
p4453
g388
sVlaptop-detect
p4454
g1720
sVaiff
p4455
g388
sVopensourced
p4456
g1933
sVxemacs21
p4457
S'xemacs21'
p4458
sVlow-level
p4459
g4459
sVspells
p4460
S'spell'
p4461
sg523
g523
sVlibwnck-dev
p4462
g4159
sVklavaro
p4463
S'klavaro'
p4464
sVtranscode
p4465
g665
sVmoovida
p4466
S'moovida'
p4467
sVsonic
p4468
S'sonic'
p4469
sV264
p4470
S'x264'
p4471
sVfatx
p4472
g1607
sVspamassasin
p4473
S'spamassassin'
p4474
sVnat)
p4475
g2723
sVxoeg
p4476
g1117
sVsoftware-centre
p4477
S'software-center'
p4478
sS'async'
p4479
g4479
sVshared-mime-info
p4480
S'shared-desktop-ontologies'
p4481
sVshed
p4482
g4082
sVpure-ftpd
p4483
S'pure-ftpd'
p4484
sVx11vnc
p4485
S'x11vnc'
p4486
sVfglrx-amdcccle
p4487
g208
sValsa-source
p4488
g1956
sVbooloader
p4489
g578
sVpinpoint
p4490
S'pinpoint'
p4491
sVlanguage-pack-en
p4492
g2303
sVtermianl
p4493
g1766
sVwmii
p4494
S'wmii'
p4495
sVmozplugger
p4496
S'mozplugger'
p4497
sg583
g583
sVgnome-www-browser
p4498
g45
sVgnome-games
p4499
g45
sVftp-server
p4500
g772
sVlivecd)
p4501
g98
sVunity-2d-panel
p4502
g1611
sS'videocard'
p4503
S'videocard'
p4504
sVhibernations
p4505
g25
sVlibfontconfig1
p4506
S'libfontconfig'
p4507
sVistruction
p4508
Vinstruction
p4509
sVetckeeper
p4510
S'etckeeper'
p4511
sVgsmartcontrol
p4512
S'gsmartcontrol'
p4513
sVdev-c++
p4514
g4514
sVw3c
p4515
S'w3m'
p4516
sVw3m
p4517
g4516
sVwimp
p4518
g951
sVnetatalk
p4519
S'netatalk'
p4520
sVirssi)
p4521
g58
sVdoomsday
p4522
S'doomsday'
p4523
sVcricket
p4524
S'cricket'
p4525
sVopenssh-server
p4526
g533
sVgksu
p4527
g2529
sVnautilus-open-terminal
p4528
g437
sVxerox
p4529
g4529
sVklick
p4530
S'klick'
p4531
sVgaim
p4532
g944
sVwince
p4533
g1170
sS'eap'
p4534
S'eap'
p4535
sVmpayer
p4536
g1664
sVear
p4537
g3744
sVvnc-java
p4538
g61
sVdma
p4539
S'dma'
p4540
sVitin
p4541
S'tin'
p4542
sVsynaptec
p4543
g234
sVcupsd
p4544
g53
sS'universal'
p4545
g4545
sVdeborphan
p4546
g1592
sVgnome-app-install
p4547
g45
sVlsscsi
p4548
S'lsscsi'
p4549
sV#latex
p4550
S'lyx'
p4551
sVrumors
p4552
S'rumor'
p4553
sVlinux-headers-generic
p4554
g1062
sVfinch
p4555
S'finch'
p4556
sVplanetpenguin-racer
p4557
S'planetpenguin-racer'
p4558
sS'star'
p4559
g4559
sVwamp
p4560
Vlamp
p4561
sVnrg2iso
p4562
g1662
sS'northbridge'
p4563
S'northbridge'
p4564
sVtomcat
p4565
S'tomcat'
p4566
sS'samsung'
p4567
S'samsung'
p4568
sVunetbooin
p4569
g70
sVbcc
p4570
S'bcc'
p4571
sV/etc/rc*
p4572
g4381
sV/firefox
p4573
g220
sVopensshd
p4574
g506
sVsquirrelmail
p4575
S'squirrelmail'
p4576
sVmikmod
p4577
S'mikmod'
p4578
sVcharakters
p4579
g429
sS'imap'
p4580
S'imap'
p4581
sVswat
p4582
S'swat'
p4583
sVupdate-grub2
p4584
S'os-prober'
p4585
sVkubuntu-restricted-extras
p4586
g2008
sVbansee
p4587
S'banshee'
p4588
sVmonodevelop
p4589
g4108
sValltray
p4590
S'alltray'
p4591
sValpine
p4592
S'alpine'
p4593
sVflashplayers
p4594
g607
sVupx
p4595
S'upx'
p4596
sVmpalyer
p4597
g1664
sVups
p4598
S'ups'
p4599
sVpure-ftp
p4600
g4484
sVpriorty
p4601
Vpriority
p4602
sVsdd1
p4603
g191
sVenlightement
p4604
g210
sVkalarm
p4605
S'kalarm'
p4606
sVcaca-utils
p4607
S'caca-utils'
p4608
sVnec
p4609
S'nec'
p4610
sVhazy
p4611
g3750
sVkaffein
p4612
g1303
sVbackuppc
p4613
S'backuppc'
p4614
sS'maverick'
p4615
g1820
sVnes
p4616
S'nes'
p4617
sVmetadata
p4618
S'metadata'
p4619
sVmessanger
p4620
g100
sVbootloaded
p4621
g578
sVmew
p4622
S'mew'
p4623
sVjams
p4624
g282
sS'drm'
p4625
g4625
sS'mime'
p4626
g4626
sVdrc
p4627
S'drc'
p4628
sVkdm)
p4629
g3705
sVslices
p4630
g716
sVsliced
p4631
g716
sVbootloader
p4632
g578
sVcelestia
p4633
S'celestia'
p4634
sVx-session-manager
p4635
g810
sVlwm
p4636
S'lwm'
p4637
sVlibnss-ldap
p4638
g181
sVgnome-devel
p4639
g45
sVrtorrent
p4640
g3645
sVcomposite
p4641
S'composite'
p4642
sVkgb
p4643
S'kgb'
p4644
sVgvfs-fuse
p4645
g1699
sV#wordpress
p4646
g593
sVrawtherapee
p4647
S'rawtherapee'
p4648
sVrssh
p4649
g535
sVoleo
p4650
g517
sVfking
p4651
S'king'
p4652
sS'root'
p4653
g4653
sVterminator
p4654
g563
sVngircd
p4655
S'ngircd'
p4656
sVskipfish
p4657
S'skipfish'
p4658
sVpdfjam
p4659
S'pdfjam'
p4660
sVsysv-rc-conf
p4661
S'sysv-rc'
p4662
sVgftp-gtk
p4663
g3108
sVm-a
p4664
g2397
sVgnome-themes-extras
p4665
g45
sVsata
p4666
S'sata'
p4667
sVqcad
p4668
g3087
sV/etc/defaul/grub
p4669
g33
sVteeworlds
p4670
S'teeworlds'
p4671
sVpid#
p4672
Vpid
p4673
sVwallpapers
p4674
g2044
sVmail-notification
p4675
S'mail-expire'
p4676
sVxpad
p4677
S'pads'
p4678
sVpdgin
p4679
g112
sVwallpaper)
p4680
g2044
sVregistred
p4681
g1416
sVffmepg
p4682
g2859
sS'ethernet'
p4683
S'ethernet'
p4684
sVlinux32
p4685
S'linux32'
p4686
sV686
p4687
g1423
sVlinux-image-lowlatency
p4688
g137
sVdeco
p4689
g972
sVdigikam
p4690
g2720
sVhibernation
p4691
g25
sS'keyboard'
p4692
S'keyboard'
p4693
sVgento
p4694
S'gentoo'
p4695
sVttf-opensymbol
p4696
g1264
sV#awk
p4697
g1681
sV#awn
p4698
g685
sVgente
p4699
g2174
sVrhytmbox
p4700
g749
sVerlang
p4701
S'erlang'
p4702
sVanim
p4703
g100
sVradeontool
p4704
S'radeontool'
p4705
sVamd64)
p4706
g3357
sVaplha
p4707
g1745
sVmounth
p4708
g603
sVmount`
p4709
g603
sVmounte
p4710
g603
sVmountd
p4711
g603
sVhtml2text
p4712
S'html2text'
p4713
sVchroot'd
p4714
g760
sVsido
p4715
g1115
sVsynamptic
p4716
g234
sVwodim
p4717
S'wodim'
p4718
sVlibapache-mod-php4
p4719
g624
sVgromacs
p4720
S'gromacs'
p4721
sVmplayer-gui
p4722
g1664
sVxvkbd
p4723
S'xvkbd'
p4724
sVguayadeque
p4725
S'guayadeque'
p4726
sVgwenrename
p4727
S'gwenrename'
p4728
sS'linear'
p4729
g4729
sS'11.04'
p4730
g3688
sVnm-applet
p4731
g3398
sVxarchiver
p4732
g1375
sVzaps
p4733
g2912
sVstartx
p4734
S'xinit'
p4735
sVsceen
p4736
g290
sVguvcview
p4737
S'guvcview'
p4738
sVisp
p4739
g469
sVshush
p4740
S'shush'
p4741
sVist
p4742
S'bist'
p4743
sVxserver-xorg-video-i810
p4744
g831
sVjhbuild
p4745
S'jhbuild'
p4746
sVisa
p4747
S'isa'
p4748
sVoracles
p4749
g1240
sVubuntustudio-desktop
p4750
S'ubuntustudio-audio'
p4751
sS'hook'
p4752
g4752
sVdebug2
p4753
g160
sV-tr
p4754
g2129
sV-tt
p4755
g922
sVphp5-fpm
p4756
g624
sVlighttpd
p4757
S'lighttpd'
p4758
sVlinux-headers
p4759
g1062
sS'lenovo'
p4760
S'lenovo'
p4761
sg2762
g2762
sVlibxine1
p4762
g3926
sVgnupg
p4763
S'gnupg'
p4764
sS'13.04'
p4765
g201
sVmagicrescue
p4766
S'magicrescue'
p4767
sVd-feet
p4768
S'd-compiler'
p4769
sVseed
p4770
S'seed'
p4771
sVgtk+)
p4772
g239
sS'5.04'
p4773
S'ubuntu_5.04'
p4774
sVconifg
p4775
g814
sVvncserver
p4776
g7
sVpureftpd
p4777
g80
sVstopmotion
p4778
S'stopmotion'
p4779
sS'wipop'
p4780
S'wipop'
p4781
sVgwenview
p4782
S'gwenview'
p4783
sVflashplayer
p4784
g607
sVmaria
p4785
S'maria'
p4786
sV*gnome
p4787
g45
sS'gsm'
p4788
g4788
sValarm
p4789
g4606
sg2241
g2241
sVscotch
p4790
S'scotch'
p4791
sVconsole-common
p4792
S'console-braille'
p4793
sS'probe'
p4794
g4794
sVgnome-system-monitor
p4795
g45
sVx264
p4796
g4471
sVplasma-desktop
p4797
S'plasma-active'
p4798
sVvlc-nox
p4799
g513
sS'hoary'
p4800
g4774
sV/ftp
p4801
g772
sVephiphany
p4802
g66
sVsugar
p4803
S'sugar'
p4804
sVldap
p4805
S'ldap'
p4806
sVvncviewer
p4807
g259
sS'ultradma'
p4808
S'ultradma'
p4809
sV#rhythmbox
p4810
g749
sVwww-browser
p4811
S'www-browser'
p4812
sVgnome-ppp
p4813
g45
sS'ietf'
p4814
S'ietf'
p4815
sS'fields'
p4816
g4816
sVnvdia
p4817
g3317
sVe2fslibs
p4818
S'e2fslibs'
p4819
sVbam
p4820
S'bam'
p4821
sVg++)
p4822
g1863
sVears
p4823
g3744
sVubntu
p4824
g1392
sVpwgen
p4825
S'pwgen'
p4826
sVdpkg*
p4827
g1534
sVxawtv
p4828
S'xawtv'
p4829
sS'saic'
p4830
S'saic'
p4831
sVduff
p4832
g388
sVdpkg-
p4833
g1534
sS'ppga'
p4834
S'ppga'
p4835
sVomg
p4836
S'zomg'
p4837
sVgparted*
p4838
g1034
sS'feisty'
p4839
g3
sVbunzip
p4840
g1906
sVclamav
p4841
S'clamav'
p4842
sVtotem)
p4843
g1890
sV386
p4844
g1423
sVunp
p4845
S'unp'
p4846
sVboinc-client
p4847
S'boinc'
p4848
sVcaps-lock
p4849
g431
sVdpkgs
p4850
g1534
sVsdb2
p4851
g191
sVsdb1
p4852
g191
sVquassel
p4853
S'quassel'
p4854
sVsdb)
p4855
g191
sVbanwidth
p4856
S'bandwidthd'
p4857
sVxfs
p4858
g892
sVcopycat
p4859
g4859
sVbyacc
p4860
S'byacc'
p4861
sVlinux-headers-server
p4862
g1062
sVminitube
p4863
S'minitube'
p4864
sVnetwork-manager
p4865
g3398
sVtrigger
p4866
g4866
sVdesing
p4867
g698
sVlibpq5
p4868
S'libpq-dev'
p4869
sVbridge-utils
p4870
S'bridge-utils'
p4871
sVlibglide3
p4872
S'libglide2'
p4873
sVnon-proprietary
p4874
g4874
sVtraceroute6
p4875
g2381
sS'cdrom'
p4876
g4876
sV#tor
p4877
g3235
sVmcp
p4878
g4878
sS'exception'
p4879
g4879
sVremakes
p4880
S'remake'
p4881
sS'sli'
p4882
S'sli'
p4883
sVelectricsheep
p4884
S'electricsheep'
p4885
sS'avahi'
p4886
g4886
sVbalance
p4887
g2951
sVgaim2
p4888
g944
sS'ip'
p4889
g4889
sVmoust
p4890
g603
sS'iw'
p4891
g4891
sS'iv'
p4892
g4892
sVfreevo
p4893
S'freevo'
p4894
sS'io'
p4895
g4895
sVfaked
p4896
g735
sVbcast
p4897
S'beast'
p4898
sS'mouse'
p4899
S'mouse'
p4900
sVlintian
p4901
S'lintian'
p4902
sVlibcairo2-dev
p4903
g3776
sVbells
p4904
g4904
sVlibcurl-dev
p4905
g2166
sVi3
p4906
g1423
sVi5
p4907
g1423
sVi7
p4908
g1423
sV-faad
p4909
S'faad'
p4910
sVzlib1g
p4911
g378
sVunicorn
p4912
g3793
sVkib
p4913
g4644
sVrieserfs
p4914
g892
sS'nlos'
p4915
S'nlos'
p4916
sVpaswd
p4917
g827
sVslrn
p4918
S'slrn'
p4919
sVpandora
p4920
S'pandora'
p4921
sVhuman-theme
p4922
S'human-gtk-theme'
p4923
sS'flashmemory'
p4924
S'flashmemory'
p4925
sVgdesklets
p4926
g1017
sV#gimp
p4927
g951
sVlibapache2-mod-php4
p4928
g624
sVlibapache2-mod-php5
p4929
g1546
sV#eclipse
p4930
g2584
sVrsyslogd
p4931
g531
sVvirtualbox-ose-source
p4932
g370
sVdconf-editor
p4933
g2168
sVokular
p4934
S'okular'
p4935
sVdefrag
p4936
g1040
sVcopyrights
p4937
g3845
sVcairo-dock
p4938
g3307
sVlinux-doc
p4939
S'linux-doc'
p4940
sVopt
p4941
g1759
sVassid
p4942
g318
sVmemtest
p4943
g898
sVsimlinks
p4944
g1230
sVgnome3-session
p4945
g45
sV`lsof
p4946
S'lsof'
p4947
sVdaemon
p4948
g257
sVvdr
p4949
S'vdr'
p4950
sS'vdu'
p4951
S'vdu'
p4952
sVbanshee
p4953
g4588
sVgnome-pannel
p4954
g45
sVclementine
p4955
S'clementine'
p4956
sS'4.10'
p4957
g2856
sS'www'
p4958
g4958
sVdchroot
p4959
g760
sVtotam
p4960
g1890
sS'so-dimm'
p4961
S'so-dimm'
p4962
sVtracker
p4963
S'tracker'
p4964
sVxhydra
p4965
g4154
sV#mozilla
p4966
g2374
sS'googleearth'
p4967
g4967
sS'compress'
p4968
g4968
sVextreem
p4969
g718
sV`pkg-config
p4970
S'pkg-components'
p4971
sVpostgresql
p4972
S'postgresql'
p4973
sVbootcd
p4974
g991
sVlapic
p4975
g2532
sS'meerkat'
p4976
g1820
sVdvd-slideshow
p4977
g3671
sVparsing
p4978
g4978
sVsypnatic
p4979
g234
sV/mnt/sysimage
p4980
g760
sVquerys
p4981
g3786
sVwhiped
p4982
g1513
sVlinux-restricted-modules-386
p4983
g502
sVmtr-tiny
p4984
g2969
sVbittorrents
p4985
g49
sVtraceroute
p4986
g2381
sVnautilus-actions
p4987
g437
sS'forks'
p4988
g4988
sVvcdimager
p4989
S'vcdimager'
p4990
sVkdebase-bin
p4991
g4138
sS'infor'
p4992
S'infor'
p4993
sVoidentd
p4994
S'oidentd'
p4995
sVbootloader)
p4996
g578
sVsapphire
p4997
S'sapphire'
p4998
sVxserver-xephyr
p4999
g831
sVifupdown
p5000
g1757
sVlibapache2-mod-auth-mysql
p5001
g1546
sS'zend'
p5002
g5002
sS'drive'
p5003
S'drive'
p5004
sVbrasero
p5005
S'brasero'
p5006
sVhpijs
p5007
S'hpijs'
p5008
sVvrms
p5009
g346
sVk3d
p5010
S'k3d'
p5011
sS'excel'
p5012
g5012
sVgprename
p5013
S'gprename'
p5014
sVsybase
p5015
g5015
sVsmartmontools
p5016
S'smartmontools'
p5017
sVxscreen
p5018
g290
sVwechat
p5019
g613
sVbluefish
p5020
g975
sVcpuburn
p5021
S'cpuburn'
p5022
sVfsf
p5023
g5023
sS'fsl'
p5024
S'fsl'
p5025
sVfbpanel
p5026
S'fbpanel'
p5027
sVchrony
p5028
S'chrony'
p5029
sVgnine
p5030
g398
sS'capgemini'
p5031
S'capgemini'
p5032
sVaddusers
p5033
g605
sVazareus
p5034
g139
sVupdate-manager-core
p5035
g156
sVprimer
p5036
g949
sVaudicity
p5037
g936
sVtuxtype
p5038
S'tuxtype'
p5039
sVavahi-daemon
p5040
S'avahi-autoipd'
p5041
sVaspx
p5042
g3742
sVcamorama
p5043
S'camorama'
p5044
sVpython-setuptools
p5045
g485
sS'smartphone'
p5046
S'smartphone'
p5047
sVpureadmin
p5048
S'pureadmin'
p5049
sS'sanmina'
p5050
S'sanmina'
p5051
sVpython-twisted
p5052
g485
sVrecursivly
p5053
g3779
sVintramfs
p5054
g2192
sVncpfs
p5055
S'ncpfs'
p5056
sVcenterim
p5057
g2127
sVdia
p5058
S'dia'
p5059
sVgnome-control-center
p5060
g45
sVfbset
p5061
S'fbset'
p5062
sVimagemagic
p5063
g1629
sVautolog
p5064
S'autolog'
p5065
sVimagemagik
p5066
g1629
sViperf
p5067
S'iperf'
p5068
sVssid
p5069
g318
sVtimboy
p5070
S'tomboy'
p5071
sVfiller
p5072
S'filter'
p5073
sVnauitlus
p5074
g437
sS'template'
p5075
g5075
sVgnome-search-tool
p5076
g45
sVacpi
p5077
g2532
sVxfonts-scalable
p5078
g561
sVresiserfs
p5079
g892
sVmakeup
p5080
g4437
sVnetwork-manager-openvpn
p5081
g3398
sVfindimagedupes
p5082
S'findimagedupes'
p5083
sS'leap'
p5084
S'leap'
p5085
sVkernel-image
p5086
g1452
sVrlogin
p5087
g368
sVweechat
p5088
g613
sVk3b)
p5089
g816
sS'coaxialcable'
p5090
S'coaxialcable'
p5091
sVgnoem
p5092
g45
sVboo
p5093
S'boo'
p5094
sVboa
p5095
S'boa'
p5096
sVmulti-tasking
p5097
g3495
sVdestop
p5098
g2714
sVsqllite
p5099
S'sqlite'
p5100
sVperc
p5101
g4030
sVpera
p5102
g4030
sVperf
p5103
g4030
sVlibsmbclient
p5104
S'libsmbclient'
p5105
sVperl
p5106
g243
sValt-key
p5107
S'alt-ergo'
p5108
sVwinbond
p5109
g1755
sVperu
p5110
g4030
sS'encode'
p5111
g5111
sVppid
p5112
g4673
sVflashplugin-installer
p5113
g607
sVhockey
p5114
g1458
sVglibc-doc
p5115
S'glibc-2.13-1'
p5116
sVfiaif
p5117
S'fiaif'
p5118
sVibooks
p5119
g2112
sVrecordmydesktop
p5120
g4348
sVoop
p5121
S'oop'
p5122
sV/nfs
p5123
g4287
sVam64
p5124
g3357
sVsoup
p5125
S'sup'
p5126
sS'cisc'
p5127
S'cisc'
p5128
sVstartx)
p5129
g4735
sVpavumeter
p5130
S'pavumeter'
p5131
sVpredict
p5132
S'predict'
p5133
sVxserver-xorg'.
p5134
g831
sVxserver-xorg',
p5135
g831
sg1654
g1654
sVxmbc
p5136
g3197
sS'processorcore'
p5137
S'processorcore'
p5138
sVphp5-mcrypt
p5139
g624
sVgnome-phone-manager
p5140
g45
sVtile
p5141
S'tiled'
p5142
sVasmo
p5143
S'nasm'
p5144
sS'asml'
p5145
S'asml'
p5146
sVrespo
p5147
g1686
sVsnd
p5148
g1236
sVchildsplay
p5149
S'childsplay'
p5150
sVetherape
p5151
S'etherape'
p5152
sVtransgaming
p5153
g2961
sVsmtpd
p5154
g118
sVauto-apt
p5155
S'auto-apt'
p5156
sVresps
p5157
g1686
sVmal
p5158
g1213
sVznc
p5159
g493
sS'switch'
p5160
S'switch'
p5161
sVbasket
p5162
S'basket'
p5163
sVlsb
p5164
g2268
sVshoes
p5165
S'shoes'
p5166
sVxubuntu-desktop
p5167
S'xubuntu-artwork'
p5168
sVtovid
p5169
S'tovid'
p5170
sVmunt
p5171
g603
sVenigmail
p5172
S'enigmail'
p5173
sVshake
p5174
g553
sVvirtualbox)
p5175
g370
sVgrub-common
p5176
g863
sS'monitor'
p5177
S'monitor'
p5178
sVxmule
p5179
g3545
sVfgrlx
p5180
g208
sVcabextract
p5181
S'cabextract'
p5182
sVputty)
p5183
g1291
sVextundelete
p5184
S'extundelete'
p5185
sVschroot
p5186
g760
sVdyndns
p5187
g253
sVevtest
p5188
S'evtest'
p5189
sVxorg-driver-synaptics
p5190
g1117
sVrhythembox
p5191
g749
sVrewind
p5192
g511
sVkdegames
p5193
S'kdegames'
p5194
sVlunch
p5195
S'lunch'
p5196
sVlostirc
p5197
S'lostirc'
p5198
sVcadega
p5199
g2961
sVirrc
p5200
g352
sVthudnerbird
p5201
g224
sVgerris
p5202
S'gerris'
p5203
sVsupybot
p5204
S'supybot'
p5205
sVafterstep
p5206
S'afterstep'
p5207
sVpyneighborhood
p5208
S'pyneighborhood'
p5209
sVlibcurl4-openssl-dev
p5210
g2166
sS'gtkmm'
p5211
g5211
sViasl
p5212
S'iasl'
p5213
sValpha2
p5214
g1745
sValpha3
p5215
g1745
sValpha1
p5216
g1745
sValpha6
p5217
g1745
sVgopchop
p5218
S'gopchop'
p5219
sValpha4
p5220
g1745
sVpoco
p5221
g304
sV`ssh
p5222
g535
sV/etc/defaults/grub
p5223
g33
sValpha)
p5224
g1745
sVsensor
p5225
S'sensord'
p5226
sVlm-sensor
p5227
g3208
sVbrooks
p5228
g2112
sVdebootstrap
p5229
g1961
sS'wi-fi'
p5230
S'wi-fi'
p5231
sVorb
p5232
g5232
sVbloatware
p5233
g5233
sValphas
p5234
g1745
sS'headphones'
p5235
S'headphones'
p5236
sVlinux-kernel-headers
p5237
S'linux-kernel-headers'
p5238
sVfluxt
p5239
S'fluxbox'
p5240
sVfluxd
p5241
g5240
sVcheese
p5242
g2475
sVtelent
p5243
g410
sVcheesy
p5244
g2475
sVinterchange
p5245
S'interchange'
p5246
sVpidgin-facebookchat
p5247
g112
sVhardlinks
p5248
g3880
sVupstart-compat-sysv
p5249
g382
sVlinux-firmware-nonfree
p5250
g545
sVlibimlib2
p5251
S'libimlib2'
p5252
sS'ttls'
p5253
S'ttls'
p5254
sS'vorbis'
p5255
g5255
sVcracks
p5256
g2365
sVkqemu
p5257
g271
sVonbord
p5258
g320
sVntfs-g3
p5259
g884
sVnvida
p5260
g3317
sVhedgewars
p5261
S'hedgewars'
p5262
sVprivoxy
p5263
S'privoxy'
p5264
sS'server'
p5265
S'server'
p5266
sVzsh
p5267
S'zsh'
p5268
sVpumount
p5269
g76
sVmultitail
p5270
S'multitail'
p5271
sVgphpedit
p5272
S'gphpedit'
p5273
sVmplayers
p5274
g1664
sVno-cd
p5275
g5275
sVdash
p5276
S'dash'
p5277
sV#mplayer
p5278
g1664
sVlicq
p5279
S'licq'
p5280
sVgnoe
p5281
g45
sS'calendar'
p5282
g5282
sS'speakers'
p5283
S'speakers'
p5284
sVkacpid
p5285
g4203
sVsquad
p5286
g1894
sVkinfocenter
p5287
S'kinfocenter'
p5288
sVwinefish
p5289
S'winefish'
p5290
sVrhytmnbox
p5291
g749
sVmplayer2
p5292
g1664
sVmplayer)
p5293
g1664
sVdekstop
p5294
g2714
sVtrashapplet
p5295
S'trashapplet'
p5296
sVk3b
p5297
g816
sVdrawings
p5298
g2344
sVvmtools
p5299
g3201
sVdict
p5300
g4317
sVlibx11-dev
p5301
g2471
sV*config
p5302
g814
sVvorbis-tools
p5303
S'vorbis-tools'
p5304
sVreps
p5305
g2593
sVmultiboot
p5306
g3922
sVrepo
p5307
g2593
sVlibncurses5
p5308
g2157
sVmacpro
p5309
g591
sVutil-linux
p5310
S'util-linux'
p5311
sVbastille
p5312
S'bastille'
p5313
sVgem
p5314
S'gem'
p5315
sVfvwm2
p5316
S'fvwm'
p5317
sVip6tables
p5318
g1048
sVnumlockx
p5319
g431
sVheadphon
p5320
g1808
sVmunin
p5321
S'munin'
p5322
sVfrostwire
p5323
g753
sVmozzilla
p5324
g2374
sg1327
g1327
sS'dvd-r'
p5325
S'dvd-r'
p5326
sVlshw-gtk
p5327
g4270
sS'relative'
p5328
g5328
sVxmame
p5329
g463
sV64x2
p5330
g3222
sVdvdauthor
p5331
g4149
sVcamping
p5332
S'camping'
p5333
sS'tapedrive'
p5334
S'tapedrive'
p5335
sVnetwork-manger
p5336
g3398
sVpump
p5337
S'pump'
p5338
sVwinetricks
p5339
S'winetricks'
p5340
sVnntp
p5341
g3448
sVlibgc
p5342
g1099
sVvdrift
p5343
g3516
sVavidmux
p5344
S'avidemux'
p5345
sVgrisbi
p5346
S'grisbi'
p5347
sS'tut'
p5348
g5348
sS'js'
p5349
g5349
sV*bsd
p5350
g1898
sVlinux-virtual
p5351
S'linux-virtual'
p5352
sVrugby
p5353
g1112
sVsupplicant
p5354
g576
sVjfs
p5355
g892
sVunmont
p5356
g603
sVphpldapadmin
p5357
S'phpldapadmin'
p5358
sVanthy
p5359
S'anthy'
p5360
sViotop
p5361
S'iotop'
p5362
sVlsb-release
p5363
g2268
sVpearpc
p5364
S'pearpc'
p5365
sVgnupg2
p5366
S'gnupg'
p5367
sVcron-apt
p5368
g1466
sS'gfxcard'
p5369
g5369
sVrpm2cpio
p5370
S'rpm2cpio'
p5371
sVslackware
p5372
S'slack'
p5373
sVsnes
p5374
g2991
sVnautilus)
p5375
g437
sVnautilus*
p5376
g437
sVgnome-3
p5377
g45
sVntfs-config
p5378
g884
sVgander
p5379
g2930
sVsyntaptic
p5380
g234
sVxserver-xor
p5381
g831
sVflash-nonfree
p5382
g607
sVnautilis
p5383
g437
sVbluetooh
p5384
g3835
sVgnupgp
p5385
g5367
sVbackup2l
p5386
S'backup2l'
p5387
sVaudicious
p5388
g2709
sS'cluster'
p5389
S'cluster'
p5390
sVmii-diag
p5391
g404
sVwordnet
p5392
S'wordnet'
p5393
sV^snd
p5394
g1236
sVpap
p5395
g1839
sVpar
p5396
S'par'
p5397
sVdcpp
p5398
g1262
sVwhois
p5399
g1625
sVpaw
p5400
S'paw'
p5401
sVpax
p5402
S'pax'
p5403
sVpad
p5404
g4678
sVsimplebackup
p5405
S'simplebackup'
p5406
sVpal
p5407
S'pal'
p5408
sS'pam'
p5409
g5409
sVpan
p5410
g310
sVdeluged
p5411
g3673
sVdebmirror
p5412
S'debmirror'
p5413
sVremake
p5414
g4881
sVtoshset
p5415
S'toshset'
p5416
sVextender
p5417
g72
sVemacs23
p5418
g487
sVlemon
p5419
g257
sVbcm43xx-fwcutter
p5420
S'b43-fwcutter'
p5421
sVthundar
p5422
g1211
sVchomium
p5423
g3444
sg591
g591
sVubunut-desktop
p5424
g1443
sVdefragg
p5425
g1040
sVpftp
p5426
g772
sVubuntu-restricted-extra
p5427
g2008
sVphpmyadmin
p5428
g3220
sV-xine
p5429
g398
sVautocad
p5430
g5430
sVflashplugin-nonfree
p5431
g607
sVparam
p5432
g885
sVmupen64plus
p5433
S'mupen64plus'
p5434
sVquanta+
p5435
g975
sVgrip
p5436
S'grip'
p5437
sVmoz
p5438
g2374
sVazures
p5439
g139
sVdocky
p5440
g685
sVmos
p5441
g5441
sVdocks
p5442
g685
sg800
g800
sS'moo'
p5443
g5443
sVmon
p5444
g1073
sVmoc
p5445
S'moc'
p5446
sS'credentials'
p5447
g5447
sVgrim
p5448
g944
sVlighttp
p5449
g4758
sV/usr/include
p5450
g3469
sS'lightning'
p5451
S'lightning'
p5452
sVgnome-settings-daemon
p5453
g45
sVxfce4-appfinder
p5454
g1172
sVvnc-viewer
p5455
g61
sVquantal
p5456
g1880
sVlibboost-dev
p5457
S'libboost-all-dev'
p5458
sVgcvs
p5459
g1232
sVwammu
p5460
S'wammu'
p5461
sVazuerus
p5462
g139
sVoctane
p5463
g2496
sVmp3gain
p5464
S'mp3gain'
p5465
sVgross
p5466
S'gross'
p5467
sS'modifierkey'
p5468
S'modifierkey'
p5469
sg2300
g2300
sVlunar
p5470
S'lunar'
p5471
sVuswsusp
p5472
S'uswsusp'
p5473
sS'olos'
p5474
S'olos'
p5475
sVregexp
p5476
g3069
sS'qnh'
p5477
S'qnh'
p5478
sV|sudo
p5479
g1115
sVtightvncserver
p5480
S'tightvncserver'
p5481
sVfetchyahoo
p5482
S'fetchyahoo'
p5483
sVusera
p5484
S'user1'
p5485
sVirssi
p5486
g58
sVsensors-detect
p5487
g195
sVeinstein
p5488
S'einstein'
p5489
sVcheckgmail
p5490
S'checkgmail'
p5491
sS'thyristor'
p5492
S'thyristor'
p5493
sVetherreal
p5494
g1505
sVmingw32
p5495
S'mingw-ocaml'
p5496
sVsmbnetfs
p5497
S'smbnetfs'
p5498
sg2734
g2734
sVdecode
p5499
S'recode'
p5500
sVnewsreader
p5501
g310
sVlibbz2-dev
p5502
S'libbz2-1.0'
p5503
sVshoutcast
p5504
g5504
sVdavfs
p5505
g4048
sVwiping
p5506
g1513
sVapic
p5507
g2532
sVhiberate
p5508
g25
sV@gmail
p5509
g4280
sVcacti
p5510
S'cacti'
p5511
sS'vdpau'
p5512
g5512
sVbandwidths
p5513
g4857
sVpacman
p5514
g1723
sVipvs
p5515
g469
sV3800+
p5516
g3222
sS'dvd'
p5517
S'dvd'
p5518
sVbandwidthd
p5519
g4857
sVchmsee
p5520
S'chmsee'
p5521
sVcensor
p5522
g5226
sVsecure-delete
p5523
S'secure-delete'
p5524
sVimagination
p5525
S'imagination'
p5526
sVfail2ban
p5527
S'fail2ban'
p5528
sVkdevelop
p5529
g3348
sVmangler
p5530
S'mangler'
p5531
sVistanbul
p5532
g4013
sVkonversation
p5533
g3935
sVdrivers
p5534
g2910
sVgnu/linux
p5535
g5535
sVsimdock
p5536
S'simdock'
p5537
sVxine-gui
p5538
S'xine-console'
p5539
sVbittorrent-gui
p5540
g49
sVwxmaxima
p5541
S'wxmaxima'
p5542
sVi8kutils
p5543
S'i8kutils'
p5544
sVneverball
p5545
g3964
sVlog-in
p5546
g368
sVwinzip
p5547
g5547
sVlibgl-dev
p5548
g894
sVbusybox
p5549
g2192
sVselinux
p5550
S'selinux'
p5551
sVrebind
p5552
g511
sVlibqtcore4
p5553
S'libqtcore4'
p5554
sVsdlmame
p5555
S'sdlmame'
p5556
sVcooperative
p5557
g5557
sVdisassembler
p5558
g5558
sS'controllercard'
p5559
S'controllercard'
p5560
sVgrub*
p5561
g863
sVwbar
p5562
S'wbar'
p5563
sVgrub/
p5564
g863
sVgrub-
p5565
g863
sVgrub2
p5566
g863
sVgrub1
p5567
g863
sVimms
p5568
g2709
sVgmails
p5569
g4280
sVmakedev
p5570
S'makedev'
p5571
sVgrub>
p5572
g863
sVnicotine+
p5573
g2666
sVgnomebaker
p5574
g816
sg3370
g3370
sVchrootkit
p5575
S'chkrootkit'
p5576
sVgsynaptic
p5577
g234
sVcompizconfig-setting-manager
p5578
g1022
sVgrub_
p5579
g863
sVconsole-data
p5580
g4793
sS'dongle'
p5581
S'dongle'
p5582
sVphppgadmin
p5583
S'phppgadmin'
p5584
sVgrubs
p5585
g1119
sV#inkscape
p5586
g3992
sVportable
p5587
g5587
sV/usr/include/
p5588
g3469
sVircd-ircu
p5589
g1257
sVqt4-designer
p5590
g3578
sVplugins
p5591
g2140
sVkrb5-user
p5592
S'krb5-admin-server'
p5593
sVsbcl
p5594
S'sbcl'
p5595
sVabc
p5596
g5596
sVksensors
p5597
g195
sVabe
p5598
S'abe'
p5599
sVmp3info
p5600
S'mp3info'
p5601
sVcaffeine
p5602
g1303
sS'hdd'
p5603
S'hdd'
p5604
sVntp
p5605
g3448
sVmemtester
p5606
S'memtester'
p5607
sVklamav
p5608
S'clamav'
p5609
sVmultiget
p5610
S'multiget'
p5611
sS'component'
p5612
S'component'
p5613
sVplugin)
p5614
g2140
sVxinetd
p5615
g3427
sVircd-irc2
p5616
g1257
sVindicator-datetime
p5617
g263
sVmanpages-dev
p5618
g1051
sS'harddrive'
p5619
S'disk'
p5620
sVdictd
p5621
g4317
sV#xfce
p5622
g1434
sVmisery
p5623
S'misery'
p5624
sg1281
g1281
sVoroborus
p5625
S'oroborus'
p5626
sS'dvd+r'
p5627
S'dvd+r'
p5628
sVjruby
p5629
g1112
sVdebugged
p5630
g1281
sVid_dsa
p5631
g535
sVasta
p5632
g1786
sVwiped
p5633
g1513
sVtwm
p5634
S'twm'
p5635
sVraft
p5636
S'rant'
p5637
sVgaah
p5638
g489
sVwipes
p5639
g1513
sg2374
g2374
sVindicator-appmenu
p5640
g263
sVpsql
p5641
g1712
sVsucky
p5642
S'suck'
p5643
sg1213
g1213
sVabook
p5644
g2112
sVp7zip
p5645
g2893
sVmarble
p5646
S'marble'
p5647
sV##python
p5648
g485
sS'eide'
p5649
S'eide'
p5650
sVpython-xdg
p5651
g485
sVgtkguitune
p5652
S'gtkguitune'
p5653
sVlibgl1-mesa-glx
p5654
g894
sVsocat
p5655
S'socat'
p5656
sVxserver-xorg-video-all
p5657
g831
sVfirefox`
p5658
g220
sVcsh
p5659
g4088
sVfirefoxs
p5660
g220
sVsmstools
p5661
S'smstools'
p5662
sVcst
p5663
g626
sVcsv
p5664
S'csv'
p5665
sS'css'
p5666
g5666
sVpdftk
p5667
S'pdftk'
p5668
sS'connectivity'
p5669
g5669
sVavidemux
p5670
g5345
sVfirefox&
p5671
g220
sVfirefox)
p5672
g220
sVfirefox*
p5673
g220
sVfirefox-
p5674
g220
sVfirefox/
p5675
g220
sVblunder
p5676
g1067
sS'baremetal'
p5677
S'baremetal'
p5678
sVfirefox3
p5679
g220
sVfirefox2
p5680
g220
sVfirefox4
p5681
g220
sVpciutils
p5682
S'pciutils'
p5683
sS'facebook'
p5684
S'facebook'
p5685
sVgcc-multilib
p5686
g2046
sVspdf
p5687
g722
sVscrot
p5688
S'scrot'
p5689
sV/python
p5690
g485
sVlsb-base
p5691
g2268
sVwiring
p5692
g1513
sVxine-ui
p5693
g5539
sVfilters
p5694
S'filters'
p5695
sVupdate-motd
p5696
g156
sVttf-dejavu
p5697
g1264
sVgpart
p5698
S'gpart'
p5699
sVxterms
p5700
g1005
sVgnome-bluetooth
p5701
g45
sVbroadcom-sta-common
p5702
S'broadcom-sta-common'
p5703
sVadios
p5704
g327
sVboson
p5705
S'bison'
p5706
sVxserver-xorg-video-radeon
p5707
g831
sVpcl
p5708
g5708
sVpcb
p5709
S'pcb'
p5710
sV/|grep
p5711
g1543
sVcofig
p5712
g814
sVcrawls
p5713
g237
sVcgmail
p5714
g4280
sS'7.04'
p5715
g3
sVcoding
p5716
g5716
sVlibdbus-glib-1-2
p5717
g1979
sVmpdscribble
p5718
S'mpdscribble'
p5719
sVdhclient
p5720
g1915
sVnautlius
p5721
g437
sS'drake'
p5722
g1500
sS'bootdisk'
p5723
S'bootdisk'
p5724
sV2d
p5725
g5725
sVdebbootstrap
p5726
g1961
sVunshield
p5727
S'unshield'
p5728
sVfish
p5729
S'fish'
p5730
sVpulseaudio-esound-compat
p5731
g43
sVubuntu-extras-keyring
p5732
S'ubuntu-extras-keyring'
p5733
sVisp)
p5734
g469
sVshorewall
p5735
S'shorewall'
p5736
sVunattended-upgrades
p5737
S'unattended-upgrades'
p5738
sVlzma
p5739
S'lzma'
p5740
sVapache2-mpm-worker
p5741
g2782
sVemarald
p5742
g781
sVkttsd
p5743
S'kttsd'
p5744
sVevaluation
p5745
g5745
sVgscan2pdf
p5746
S'gscan2pdf'
p5747
sVvoss
p5748
g1956
sVmmv
p5749
S'mmv'
p5750
sS'mms'
p5751
g5751
sVisps
p5752
g469
sVkerenl
p5753
g1327
sVopenjdk-6-jdk
p5754
g3438
sVgconf
p5755
S'dconf'
p5756
sVgolly
p5757
S'golly'
p5758
sV#ubuntu-desktop
p5759
g1443
sVdragonplayer
p5760
S'dragonplayer'
p5761
sVfirestarted
p5762
g406
sVaudacity
p5763
g936
sVk-lite
p5764
g5764
sVtos
p5765
g5765
sVcorkscrew
p5766
S'corkscrew'
p5767
sVtrickle
p5768
S'trickle'
p5769
sVemacs21
p5770
g4458
sVgpared
p5771
g1034
sVzynaddsubfx
p5772
S'zynaddsubfx'
p5773
sVgtparted
p5774
g1034
sVnacl
p5775
g1165
sVpar2
p5776
S'par2'
p5777
sVrazor
p5778
S'razor'
p5779
sVrss-glx
p5780
S'rss-glx'
p5781
sVnumptyphysics
p5782
S'numptyphysics'
p5783
sVjetty
p5784
g3331
sVpaint
p5785
g1803
sVmama
p5786
g463
sVchromium-codecs-ffmpeg-extra
p5787
g3444
sVmame
p5788
g463
sVtrawl
p5789
g237
sVdarkroom
p5790
S'darkroom'
p5791
sVlinux-image-*
p5792
g137
sVgedit)
p5793
g857
sV|pastebinit
p5794
g527
sVlinux-image-2
p5795
g137
sVbind9
p5796
S'bind9'
p5797
sVxbindkey
p5798
g1790
sV#irc
p5799
g352
sVlinks2
p5800
g4516
sVidled
p5801
S'idle'
p5802
sVproceedure
p5803
Vprocedure
p5804
sVidles
p5805
g5802
sVbacula
p5806
S'bacula'
p5807
sVgxineplugin
p5808
S'gxineplugin'
p5809
sVk7
p5810
g1423
sVnexiuz
p5811
g1354
sVxfwm
p5812
S'xfwm4'
p5813
sVvnc
p5814
g90
sVsynfig
p5815
S'synfig'
p5816
sVpasswd
p5817
g827
sVeggs
p5818
g3684
sVcompi
p5819
g230
sS'chart'
p5820
g5820
sVlibdvdnav4
p5821
S'libdvdnav-dbg'
p5822
sVcygwin
p5823
g5823
sVubuntu-base
p5824
g1443
sVcompz
p5825
g230
sVmauro
p5826
g591
sVdrifts
p5827
g3516
sVpartimaged
p5828
g1673
sVdebsums
p5829
S'debsums'
p5830
sVxinit
p5831
g4735
sS'sector'
p5832
S'sector'
p5833
sVnautilius
p5834
g437
sVr00
p5835
g1346
sVexaile
p5836
g2854
sVgtk-theme-switch
p5837
g753
sVbusinesses
p5838
g3907
sVpuredata
p5839
S'puredata'
p5840
sVauctex
p5841
S'auctex'
p5842
sVgnokii
p5843
S'gnokii'
p5844
sVmanpages-posix-dev
p5845
g1051
sVdistributed
p5846
g5846
sVfontconfig
p5847
S'fontconfig'
p5848
sVcromium
p5849
g3444
sVcheckpoint
p5850
g5850
sS'touchscreen'
p5851
S'touchscreen'
p5852
sg1387
g168
sVdovecot-pop3d
p5853
S'dovecot-antispam'
p5854
sVferret
p5855
S'ferret'
p5856
sVsilo
p5857
g747
sVbrassero
p5858
g5006
sVtcl-dev
p5859
S'tcl'
p5860
sVscreenlets
p5861
g779
sVrippers
p5862
g3885
sS'aspect'
p5863
g5863
sVvino
p5864
g446
sVripperx
p5865
g3885
sVlibnspr4
p5866
S'libnspr4'
p5867
sVdeluge-torrent
p5868
g3673
sVkernel-source
p5869
g63
sVfreemind
p5870
S'freemind'
p5871
sS'ebay'
p5872
S'ebay'
p5873
sVlib6
p5874
g1099
sVchromium-browser
p5875
g3444
sVvnc4server
p5876
g7
sVfuseiso
p5877
S'fuseiso'
p5878
sVmoodle
p5879
S'moodle'
p5880
sVmemcoder
p5881
g1243
sVseeder
p5882
g2243
sVcompiz-fuzion
p5883
g230
sVipython
p5884
g485
sVmime-support
p5885
S'mime-construct'
p5886
sVcinelerra
p5887
S'kino'
p5888
sVbsdgames
p5889
S'bsdgames'
p5890
sVbluetoth
p5891
g3835
sVsysstat
p5892
S'sysstat'
p5893
sVgxmms
p5894
g2709
sVcpufreq
p5895
g2730
sS'afas'
p5896
S'afas'
p5897
sVlibaudio2
p5898
S'libaudio-cd-perl'
p5899
sVgpxe
p5900
g1161
sVmstt
p5901
g2234
sS'powersupply'
p5902
S'powersupply'
p5903
sVlesstif2
p5904
S'lesstif-bin'
p5905
sVlxde
p5906
g185
sVlxdm
p5907
S'lxdm'
p5908
sVheadaches
p5909
S'headache'
p5910
sVkernels
p5911
g1327
sVdcim
p5912
S'scim'
p5913
sVkconfig
p5914
g814
sVfuser
p5915
g4947
sVreformat
p5916
g859
sVbzip
p5917
g1988
sS'ncurses'
p5918
g5918
sS'6.10'
p5919
S'ubuntu_6.10'
p5920
sVgas
p5921
g5921
sVresister
p5922
g1416
sVinxi
p5923
g1475
sS'southbridge'
p5924
S'southbridge'
p5925
sVaria2c
p5926
S'aria2'
p5927
sVkathe
p5928
g2891
sV#iptables
p5929
g1048
sVunify
p5930
g1611
sVrockets
p5931
S'socket'
p5932
sVirda-utils
p5933
S'irda-modules'
p5934
sVfluxbox
p5935
g5240
sVb43-fwcutter
p5936
g5421
sVxorgs
p5937
g1117
sS'karmic'
p5938
g1782
sVxserver-sorg
p5939
g831
sVtetex
p5940
g392
sVkernal
p5941
g1327
sVgnuboy-x
p5942
S'gnuboy-sdl'
p5943
sVklipper
p5944
S'glipper'
p5945
sVdbus-x11
p5946
g2516
sVbittorent
p5947
g49
sVxorg7
p5948
g1117
sVdhcpd3
p5949
g1249
sVsym
p5950
g2480
sVreiser
p5951
g2694
sVlibc5
p5952
g1099
sVardour
p5953
g3405
sVlibc6
p5954
g1099
sVaggregate
p5955
S'aggregate'
p5956
sVxorg*
p5957
g1117
sVxorg)
p5958
g1117
sVxorg-
p5959
g1117
sVpssh
p5960
g535
sVcodeing
p5961
g5716
sVquicksynergy
p5962
S'quicksynergy'
p5963
sVlibc-dev
p5964
g2146
sS'swiss'
p5965
g5965
sVblutooth
p5966
g3835
sVlibid3tag0
p5967
S'libid3tag0'
p5968
sVspamassassin
p5969
g4474
sVcubase
p5970
g5970
sVldm
p5971
S'ldm'
p5972
sVgcursor
p5973
S'gcursor'
p5974
sVnetworkmanger
p5975
g3398
sS'softwarecenter'
p5976
g5976
sVopenttd
p5977
S'openttd'
p5978
sVdslr
p5979
g182
sVxface
p5980
g1434
sVcalibre
p5981
g3823
sS'cue'
p5982
g5982
sVauthorized_keys
p5983
g535
sVdmca
p5984
g2586
sVdebtags
p5985
S'debtags'
p5986
sVkrdc
p5987
g1969
sVca-certificates
p5988
S'ca-certificates'
p5989
sVblueman
p5990
S'blueman'
p5991
sVgcolor2
p5992
S'gcolor2'
p5993
sVbip
p5994
S'bip'
p5995
sS'intel'
p5996
S'intel'
p5997
sVcognitive
p5998
g5998
sVsemi
p5999
S'semi'
p6000
sVcomposited
p6001
g4642
sVgtalk
p6002
g100
sVflux
p6003
g5240
sVautopoint
p6004
S'autopoint'
p6005
sVseeders
p6006
g2243
sS'google'
p6007
S'google'
p6008
sVxserver-xorg-video-nouveau
p6009
g831
sVnfs-kernel-server
p6010
g1356
sVppoe
p6011
g2006
sVehhh
p6012
g489
sVgdevilspie
p6013
S'devilspie'
p6014
sVtransmission-daemon
p6015
g2438
sg3872
g3872
sVpen
p6016
g1307
sVmbr)
p6017
g578
sVtrasmission
p6018
g2438
sVglibc-dev
p6019
g2146
sVsynapitc
p6020
g234
sVlibdvdcss2
p6021
S'libdvdread-dbg'
p6022
sVwinbind
p6023
g1755
sV`mount
p6024
g603
sVcrons
p6025
g1466
sVufc
p6026
S'ufc'
p6027
sVmunge
p6028
S'munge'
p6029
sVgnome-panel
p6030
g45
sVkvpn
p6031
g2134
sVfwbuilder
p6032
S'fwbuilder'
p6033
sVcrond
p6034
g1466
sVufw
p6035
S'ufw'
p6036
sVmbrs
p6037
g578
sVconky
p6038
g1234
sVca-certificates-java
p6039
g5989
sVconstraint
p6040
g6040
sVcvlc
p6041
g513
sVbmon
p6042
g1073
sVtiff
p6043
g388
sValiens
p6044
g720
sVdefault-jdk
p6045
g4052
sVgrug
p6046
g863
sVlibsane-extras
p6047
g248
sVlibbluetooth-dev
p6048
g1174
sVnmapfe
p6049
S'nmapfe'
p6050
sVerrno
p6051
S'errno'
p6052
sVgfceu
p6053
S'gfceu'
p6054
sVchrooted
p6055
g760
sVlanguage-pack-en-base
p6056
g2303
sVcdrdao
p6057
S'cdrdao'
p6058
sVtranslate
p6059
S'translate'
p6060
sVdircproxy
p6061
S'dircproxy'
p6062
sVsdd
p6063
g191
sVsde
p6064
g191
sVsdf
p6065
g191
sVsdg
p6066
g191
sVgetty
p6067
g3331
sVsda
p6068
g191
sVsdb
p6069
g191
sVsdc
p6070
g191
sVsdl
p6071
S'sdl'
p6072
sVns2
p6073
S'ns2'
p6074
sVsdh
p6075
g191
sVtestdrive
p6076
S'testdrive'
p6077
sVsdk
p6078
g6078
sVgroovy
p6079
S'groovy'
p6080
sVrsnapshot
p6081
S'rsnapshot'
p6082
sVircii
p6083
S'ircii'
p6084
sVclips
p6085
S'clips'
p6086
sVgthumb
p6087
S'gthumb'
p6088
sVnscd
p6089
S'nscd'
p6090
sVgroove
p6091
g6080
sVflop
p6092
g793
sVconstant
p6093
S'constant'
p6094
sVlyx
p6095
g4551
sVibus
p6096
S'ibus'
p6097
sVcurb
p6098
g3143
sVphp5-gd
p6099
g624
sVcurl
p6100
S'curl'
p6101
sVsourceforge
p6102
g6102
sS'powercycle'
p6103
S'powercycle'
p6104
sVcmake
p6105
g2427
sVcrypt
p6106
S'crypt'
p6107
sVdiveintopython
p6108
S'diveintopython'
p6109
sVndiswrapper-common
p6110
g2031
sg2961
g2961
sVlibdbusmenu-glib4
p6111
S'libdbusmenu-glib-dev'
p6112
sVpapi
p6113
Vapi
p6114
sS'backsidebus'
p6115
S'backsidebus'
p6116
sS'benchmark'
p6117
g6117
sVsoftware-center
p6118
g4478
sVxaralx
p6119
S'xaralx'
p6120
sVbluedevil
p6121
S'bluedevil'
p6122
sVsudoku
p6123
S'sudoku'
p6124
sS'ntfs'
p6125
g6125
sS'cd-rom'
p6126
S'cd-rom'
p6127
sVxipmsg
p6128
S'xipmsg'
p6129
sVamused
p6130
g1203
sVmonit
p6131
S'monit'
p6132
sVvim-python
p6133
g120
sVaddgroup
p6134
g605
sS'ddr'
p6135
S'ddr'
p6136
sVfrozen-bubble
p6137
S'frozen-bubble'
p6138
sV4850
p6139
g4998
sVxamp
p6140
g4561
sVlibtiff4
p6141
S'libtiff-dev'
p6142
sVcpufrequtils
p6143
S'cpufrequtils'
p6144
sVmeta-data
p6145
g4618
sS'av'
p6146
g6146
sVenlightenment
p6147
g210
sVqsynth
p6148
S'qsynth'
p6149
sVlftp
p6150
g1958
sV/desktop/gnome/peripherals/touchpad/touchpad_enabled
p6151
g4141
sVvlc
p6152
g513
sS'vlb'
p6153
S'vlb'
p6154
sVmoun
p6155
g603
sVopenarena
p6156
S'openarena'
p6157
sVmout
p6158
g273
sVjoe_
p6159
g1461
sVvls
p6160
g513
sVapmd
p6161
S'apmd'
p6162
sValsamixergui
p6163
S'alsamixergui'
p6164
sVfilelight
p6165
S'filelight'
p6166
sVid_rsa
p6167
g535
sVjoep
p6168
g1461
sVradio
p6169
g327
sV%sudo
p6170
g1115
sVzyth
p6171
g1190
sVcrow
p6172
g1466
sVmscorefonts
p6173
g845
sVcron
p6174
g1466
sVmp3blaster
p6175
S'mp3blaster'
p6176
sVlibc6-i686
p6177
g1099
sVelisa
p6178
S'elisa'
p6179
sS'non-los'
p6180
S'non-los'
p6181
sVgnubiff
p6182
S'gnubiff'
p6183
sS'huawei'
p6184
S'huawei'
p6185
sVrxvt-unicode
p6186
g2371
sVlibglu-dev
p6187
g509
sS'3g'
p6188
g6188
sVbeasty
p6189
g4898
sVquake4
p6190
g696
sVquake3
p6191
g696
sVquake2
p6192
g696
sVgwibber-service
p6193
S'gwibber'
p6194
sVsinc
p6195
g1170
sVpython-minimal
p6196
g485
sg718
g718
sVpython-serial
p6197
g485
sVemule
p6198
g3545
sVxsupplicant
p6199
g576
sVsude
p6200
g1115
sVlimp
p6201
g951
sVtilp2
p6202
S'tilp'
p6203
sVpitivi
p6204
S'pitivi'
p6205
sS'basestation'
p6206
S'basestation'
p6207
sS'gateway'
p6208
S'gateway'
p6209
sVxchat)
p6210
g335
sVlinux-generic
p6211
g502
sVchm
p6212
S'chm'
p6213
sVxchat2
p6214
g335
sVchoqok
p6215
S'choqok'
p6216
sViis
p6217
g6217
sVquodlibet
p6218
S'quodlibet'
p6219
sS'train'
p6220
g6220
sVpython-cairo
p6221
g485
sVsystem-services
p6222
S'system-services'
p6223
sVlm_sensors
p6224
g5226
sVgnome-nettool
p6225
g45
sVnetwork-manager-gnome
p6226
g3398
sVxchats
p6227
g335
sVabcd
p6228
g5596
sVsqlite
p6229
S'sqlite3'
p6230
sV/lib/cpp
p6231
g2822
sVgtkorphan
p6232
S'gtkorphan'
p6233
sVdebain
p6234
S'debian'
p6235
sVhtdig
p6236
S'htdig'
p6237
sS'10.04'
p6238
g1865
sVsourcefourge
p6239
g6102
sV`gksudo
p6240
g2529
sVrevo
p6241
g1686
sVafk
p6242
g6242
sVgcj
p6243
S'gcj'
p6244
sVclamtk
p6245
S'clamtk'
p6246
sg4561
g4561
sVgentoo
p6247
S'gentoo'
p6248
sS'collection'
p6249
g6249
sVclonzilla
p6250
g1673
sVsoundkonverter
p6251
g114
sVbing
p6252
S'bing'
p6253
sVgitolite
p6254
S'gitolite'
p6255
sVrosegarden4
p6256
g896
sVbins
p6257
S'bins'
p6258
sVqt4-dev-tools
p6259
g3578
sS'systemunit'
p6260
S'systemunit'
p6261
sS'dv'
p6262
g6262
sVlinuxdcpp
p6263
S'linuxdcpp'
p6264
sVlibc6-dbg
p6265
g1099
sVgramps
p6266
S'gramps'
p6267
sVonboard
p6268
g320
sVgurb
p6269
g863
sVcups-pdf
p6270
g53
sS'ext4'
p6271
g6271
sg2678
g2678
sS'tsk'
p6272
g6272
sVloop-aes
p6273
g3163
sVsduo
p6274
g1115
sS'12.04'
p6275
S'ubuntu_12.04'
p6276
sVlibasound2-plugins
p6277
g4181
sVnautiuls
p6278
g437
sVgitweb
p6279
S'gitweb'
p6280
sS'dac'
p6281
S'dac'
p6282
sVdam
p6283
g6283
sVresierfs
p6284
g892
sS'toshiba'
p6285
S'toshiba'
p6286
sVdar
p6287
S'dar'
p6288
sVsynaptik
p6289
g234
sS'pango'
p6290
g6290
sVsynaptic
p6291
g234
sVdbus
p6292
S'dbus'
p6293
sVgkrellem
p6294
S'gkrellm'
p6295
sVintellij
p6296
g6296
sVpitty
p6297
g1291
sVkrita
p6298
S'krita'
p6299
sVubunut
p6300
g1392
sVamd-64
p6301
g3357
sVaterm
p6302
g1794
sS'toslink'
p6303
S'toslink'
p6304
sVrep
p6305
S'rep'
p6306
sVwaah
p6307
g489
sVsnce
p6308
g1170
sVmessenger
p6309
g100
sS'rec'
p6310
g6310
sVpostpone
p6311
S'postpone'
p6312
sS'ref'
p6313
g6313
sS'cwd'
p6314
g6314
sS'math'
p6315
g6315
sVree
p6316
S'ree'
p6317
sVkdepim
p6318
S'kdepim'
p6319
sVwebgui
p6320
S'webgui'
p6321
sVlibsqlite3-dev
p6322
S'libsqlite-dev'
p6323
sV/abc
p6324
g5596
sVkrfb
p6325
S'krfb'
p6326
sVindent
p6327
S'indent'
p6328
sS'midi'
p6329
g6329
sVliscense
p6330
g1928
sVusb-creator-gtk
p6331
g1341
sVabuse
p6332
g1203
sVscorched3d
p6333
S'scorched3d'
p6334
sVpuppet
p6335
g671
sVpgp
p6336
S'pgp'
p6337
sVsockets
p6338
g5932
sVdvb-apps
p6339
S'dvb-apps'
p6340
sVlaps
p6341
g2912
sS'firewire'
p6342
S'firewire'
p6343
sVchased
p6344
g1695
sVlibxi6
p6345
S'libxi-dev'
p6346
sS'natty'
p6347
g3688
sVnotification-daemon
p6348
S'notification-daemon'
p6349
sVbashburn
p6350
S'bashburn'
p6351
sVgtkpod
p6352
g1620
sS'syncforce'
p6353
S'syncforce'
p6354
sVsane-utils
p6355
g595
sVxutils-dev
p6356
S'xutils'
p6357
sS'udf'
p6358
g6358
sS'ogd'
p6359
S'ogd'
p6360
sVogg
p6361
S'flac'
p6362
sVudo
p6363
S'udo'
p6364
sVstreamripper
p6365
S'streamripper'
p6366
sS'ipad'
p6367
S'ipad'
p6368
sS'virtualmachines'
p6369
g6369
sVslack
p6370
g5373
sVkmplayer
p6371
S'kmplayer'
p6372
sVxscreensaver-data
p6373
g1575
sVsound-juicer
p6374
S'sound-icons'
p6375
sVabstracts
p6376
g4228
sVtidy
p6377
S'tidy'
p6378
sVwavpack
p6379
S'wavpack'
p6380
sVamrok
p6381
g985
sVlinux-sound-base
p6382
S'linux-sound-base'
p6383
sVphp5-dev
p6384
g624
sVistr
p6385
g4743
sVpython-qt4
p6386
g485
sVsdhc
p6387
g191
sVmit
p6388
g6388
sVlibxext-dev
p6389
S'libxext-dev'
p6390
sVtransset
p6391
S'transset'
p6392
sVsfv
p6393
S'cfv'
p6394
sVarping
p6395
S'arping'
p6396
sVazurues
p6397
g139
sVsfa
p6398
g6398
sVpython-profiler
p6399
g485
sS'barebones'
p6400
S'barebones'
p6401
sVzfs
p6402
g892
sVthunderbird
p6403
g224
sVelinks
p6404
S'elinks'
p6405
sVunebootin
p6406
g70
sVnethack
p6407
S'nethack'
p6408
sVlibperl-dev
p6409
S'libperl-apireference-perl'
p6410
sVnags
p6411
g1952
sVpenguintv
p6412
S'penguintv'
p6413
sVardour2
p6414
g3405
sVxkeycaps
p6415
S'xkeycaps'
p6416
sVscrene
p6417
g290
sS'chromebook'
p6418
S'chromebook'
p6419
sVsatas
p6420
g1786
sVsatan
p6421
g1786
sS'scholten'
p6422
S'scholten'
p6423
sVksh
p6424
S'ksh'
p6425
sVdiscovers
p6426
S'discover'
p6427
sVxdm
p6428
S'xdm'
p6429
sVsysv
p6430
g382
sS'quad-core'
p6431
S'quad-core'
p6432
sVgnome-icon-theme
p6433
g45
sVsata1
p6434
g1786
sVcycled
p6435
S'cycle'
p6436
sVsoftware-properties-gtk
p6437
g4478
sVsata)
p6438
g1786
sVmidori
p6439
S'midori'
p6440
sVcycles
p6441
g6436
sVdebconf
p6442
g1818
sS'ofdm'
p6443
S'ofdm'
p6444
sVcdega
p6445
g2961
sVtimezones
p6446
g626
sV#postfix
p6447
g1133
sVirsii
p6448
g58
sVchm2pdf
p6449
S'chm2pdf'
p6450
sVpattern
p6451
g6451
sVpidgin-data
p6452
g112
sVicecream
p6453
S'icecream'
p6454
sg2655
g2655
sVbklid
p6455
g2436
sVgnome-panel-control
p6456
g45
sVjnettop
p6457
S'jnettop'
p6458
sVgnugo
p6459
S'gnugo'
p6460
sVmozilla-plugin-vlc
p6461
g2831
sVlegit
p6462
S'legit'
p6463
sVasunder
p6464
S'asunder'
p6465
sg2140
g2140
sVcdebootstrap
p6466
g1961
sVswftools
p6467
S'swftools'
p6468
sV-tint
p6469
g2129
sVrdbms
p6470
g6470
sVhardinfo
p6471
S'hardinfo'
p6472
sS'wpa2'
p6473
S'wpa2'
p6474
sVnewsgroup
p6475
g310
sVlibmp3lame-dev
p6476
S'libmp3lame-dev'
p6477
sVcitadel
p6478
g6478
sVxrog
p6479
g1117
sS'theora'
p6480
g6480
sVdistcc
p6481
S'distcc'
p6482
sVlocales
p6483
S'locales'
p6484
sVmultithreading
p6485
g6485
sVgmountiso
p6486
g3912
sVbluetoothd
p6487
g3835
sVbeeps
p6488
g132
sg4428
g4428
sS'virt'
p6489
g6489
sVsquid
p6490
g1894
sVmyspell-en-us
p6491
S'myspell-af'
p6492
sVtcptraceroute
p6493
S'tcptraceroute'
p6494
sVregression
p6495
g6495
sVxfwm4
p6496
g5813
sVdynagen
p6497
S'dynagen'
p6498
sVez-ipupdate
p6499
S'ez-ipupdate'
p6500
sVnovels
p6501
Vnovell
p6502
sVfusesmb
p6503
S'fusesmb'
p6504
sVvfat32
p6505
g1607
sVxserver-xorg-input-joystick
p6506
g831
sVion
p6507
S'ion'
p6508
sVdebian-goodies
p6509
g2077
sVperl-modules
p6510
g243
sV#ruby
p6511
g1112
sg6502
g6502
sVparcellite
p6512
S'parcellite'
p6513
sVxserver-xorg-video-openchrome
p6514
g831
sVcpulimit
p6515
S'cpulimit'
p6516
sVsql-ledger
p6517
S'sql-ledger'
p6518
sVmesenger
p6519
g100
sS'dvd-rw'
p6520
S'dvd-rw'
p6521
sVevince
p6522
S'evince'
p6523
sVactive-x
p6524
g3980
sVdansguardian
p6525
S'dansguardian'
p6526
sVrpgs
p6527
g4417
sVghex
p6528
g1185
sVgnome-do
p6529
g45
sVgmd
p6530
g1088
sS'adf'
p6531
S'adf'
p6532
sVgallery2
p6533
g4334
sS'adc'
p6534
S'adc'
p6535
sVada
p6536
g6536
sS'smart'
p6537
S'smart'
p6538
sVgmt
p6539
g626
sVwining
p6540
g1513
sVlibpam-modules
p6541
g711
sVgnome-system-tools
p6542
g45
sVaspell
p6543
g2330
sV#ubuntu-artwork
p6544
S'ubuntu-artwork'
p6545
sVmythtv
p6546
g1190
sVnotify-osd
p6547
S'notify-osd'
p6548
sVgrdesktop
p6549
g1613
sVdsniff
p6550
g2095
sVyv12
p6551
g798
sVacetoneiso2
p6552
S'acetoneiso'
p6553
sVnautlis
p6554
g437
sVxserver-xfree86
p6555
g831
sVeglibc
p6556
Vglibc
p6557
sS'texteditor'
p6558
g6558
sVzenmap
p6559
S'zenmap'
p6560
sVmozillas
p6561
g2374
sVess
p6562
S'ess'
p6563
sVtmw
p6564
S'tmw'
p6565
sVx.org
p6566
g1117
sVmplayer-skins
p6567
g1664
sVesd
p6568
g3019
sVpbuilder
p6569
S'pbuilder'
p6570
sVqtcreator
p6571
S'qtcreator'
p6572
sVgufw
p6573
S'gufw'
p6574
sS'multi-core'
p6575
S'multi-core'
p6576
sVguff
p6577
g6574
sS'host'
p6578
S'host'
p6579
sVxvncserver
p6580
g7
sVamd/64
p6581
g3357
sVupdate-manage
p6582
g156
sVsocket
p6583
g5932
sVglade
p6584
g1445
sVnvidia-96
p6585
g265
sVwormux
p6586
S'wormux'
p6587
sVpgadmin3
p6588
S'pgadmin3'
p6589
sVnetwork-manager-vpnc
p6590
g3398
sg3034
g3034
sVsocks
p6591
g3944
sVsnd_
p6592
g1236
sS'guard'
p6593
g6593
sVtermina
p6594
g1766
sVgpodder
p6595
g3319
sVmplyaer
p6596
g1664
sVfireforx
p6597
g220
sVsnmp
p6598
g4024
sVrcs
p6599
g4381
sVarandr
p6600
g692
sVquanta
p6601
g975
sVgroff
p6602
S'groff'
p6603
sS'glib'
p6604
g6604
sVmetapackage
p6605
g1443
sS'repeater'
p6606
S'repeater'
p6607
sVgmail-notify
p6608
S'gmail-notify'
p6609
sVphp5-ldap
p6610
g624
sVnautilas
p6611
g437
sS'tkip'
p6612
S'tkip'
p6613
sVbum
p6614
S'bum'
p6615
sVxbuntu
p6616
g168
sS'impactprinter'
p6617
S'impactprinter'
p6618
sVrc5
p6619
g4381
sVrc6
p6620
g4381
sVrc0
p6621
g4381
sVflip
p6622
g793
sVrc2
p6623
g4381
sVrc3
p6624
g4381
sS'wisp'
p6625
S'wisp'
p6626
sVyafray
p6627
g6627
sVflik
p6628
g793
sVlynx
p6629
g1865
sVnatulius
p6630
g437
sVautodesk
p6631
g6631
sVpia
p6632
S'pia'
p6633
sS'internals'
p6634
g6634
sg4673
g4673
sVubuntu-sounds
p6635
S'ubuntu-sounds'
p6636
sS'accenture'
p6637
S'accenture'
p6638
sVfoo2zjs
p6639
S'foo2zjs'
p6640
sVxvnc4viewer
p6641
g259
sS'upnp'
p6642
S'upnp'
p6643
sV/gdm
p6644
g1088
sVsecpanel
p6645
S'secpanel'
p6646
sVwordlist
p6647
S'wordlist'
p6648
sVmysql-client
p6649
g2644
sVsyanaptic
p6650
g234
sS'readline'
p6651
g6651
sValsa)
p6652
g1956
sValsa*
p6653
g1956
sVpppoeconf
p6654
S'pppoeconf'
p6655
sVgnome-screensaver
p6656
g45
sVyelp
p6657
S'yelp'
p6658
sVbaker
p6659
g816
sVgnustep
p6660
S'gnustep'
p6661
sVsupertuxkart
p6662
S'supertuxkart'
p6663
sS'dsss'
p6664
S'dsss'
p6665
sVipcs
p6666
g469
sVcraft
p6667
g94
sS'non-impactprinter'
p6668
S'non-impactprinter'
p6669
sVparole
p6670
S'parole'
p6671
sVc++)
p6672
g1863
sV#screen
p6673
g290
sVassembler
p6674
g5144
sVventrillo
p6675
S'ventrilo'
p6676
sVfcgi
p6677
g4002
sVunetbootin
p6678
g70
sVcompiz-gnome
p6679
g230
sV/var/logs/messages
p6680
g1196
sVdconf-tools
p6681
g3116
sVtween
p6682
g453
sVdropbear
p6683
S'dropbear'
p6684
sVlinux-image-virtual
p6685
g137
sVtweek
p6686
g453
sVcario-dock
p6687
g3307
sV/var/log/messages
p6688
g1196
sVlibjpeg62
p6689
g216
sg3910
S'quicktime'
p6690
sS'risc'
p6691
S'risc'
p6692
sVjack
p6693
g1808
sVpid>
p6694
g4673
sV/plugins
p6695
g2140
sVnfs-server
p6696
g1356
sg1933
g1933
sVparrot
p6697
S'parrot'
p6698
sVpulseadio
p6699
g43
sVratposion
p6700
g2449
sVparted
p6701
g1382
sVgnome-disk-utility
p6702
g45
sVnetbeans
p6703
g4315
sVbuild-essentials
p6704
g1647
sVnaim
p6705
g944
sVid3v2
p6706
S'id3v2'
p6707
sVparter
p6708
g1382
sVtsocks
p6709
g3944
sVlibcupsys2
p6710
g471
sVmapivi
p6711
S'mapivi'
p6712
sVfreeglut3-dev
p6713
S'freeglut3'
p6714
sVrhythbox
p6715
g749
sS'scp'
p6716
S'scp'
p6717
sVmono-mcs
p6718
S'mono-2.0-gac'
p6719
sVcharacters)
p6720
g429
sVdebugs
p6721
g160
sVvim-gnome
p6722
g120
sVxmms2
p6723
S'xmms2'
p6724
sVxfe
p6725
g1434
sVureadahead
p6726
g4400
sVsymlinks
p6727
g1230
sVlibv4l-0
p6728
S'libv4l-0'
p6729
sVcded
p6730
g27
sVauction
p6731
g939
sVwdm
p6732
S'wdm'
p6733
sVmantis
p6734
S'mantis'
p6735
sVamavis
p6736
S'amavis'
p6737
sS'internalharddrive'
p6738
S'internalharddrive'
p6739
sVarchitecure
p6740
g1323
sVgrub)
p6741
g863
sVgnome-desktop-environment
p6742
g45
sVntfs-3g
p6743
g884
sVqjackctl
p6744
S'qjackctl'
p6745
sVpartiton
p6746
g852
sS'compizfusion'
p6747
g6747
sVm4
p6748
S'm4'
p6749
sVaoss
p6750
g1956
sVnetmasks
p6751
g890
sVautogen
p6752
S'autogen'
p6753
sVisomaster
p6754
S'isomaster'
p6755
sVvpn
p6756
S'vpn'
p6757
sVvim-nox
p6758
g120
sVkbuntu-desktop
p6759
g1443
sV/gnome
p6760
g45
sVdevilspie
p6761
g6014
sS'mx'
p6762
g6762
sVspeakup
p6763
S'speakup'
p6764
sVindicator-applet
p6765
g263
sVdolphin
p6766
S'dolphin'
p6767
sVpureftp
p6768
g80
sg6676
g6676
sVxserver-xorg-video-intel
p6769
g831
sVxdebug
p6770
g160
sVsynapatic
p6771
g234
sVtimemachine
p6772
S'timemachine'
p6773
sVent
p6774
S'ent'
p6775
sVlastfm
p6776
S'lastfm'
p6777
sS'poker'
p6778
g6778
sVlump
p6779
g162
sVsalsa
p6780
g1956
sVgpsdrive
p6781
S'gpsdrive'
p6782
sVparallel
p6783
g1031
sVgtk2-engines-aurora
p6784
g753
sVunetboot
p6785
g1161
sS'hedgehog'
p6786
g4774
sV#svn
p6787
g661
sVcomposit
p6788
g4642
sVeisa
p6789
g4747
sg3341
g3341
sVhybernate
p6790
g25
sVatitvout
p6791
S'atitvout'
p6792
sS'digest'
p6793
g6793
sS'ima'
p6794
g6794
sVnautulis
p6795
g437
sS'movieplayer'
p6796
g6796
sVglanced
p6797
g2566
sVssh-server
p6798
g535
sS'confuse'
p6799
g6799
sVgnote
p6800
g45
sS'solidstate'
p6801
S'solidstate'
p6802
sVpidgin)
p6803
g112
sVlibpam0g
p6804
g3114
sValex
p6805
g150
sVboabab
p6806
g725
sg2954
g2954
sVchuck
p6807
S'chuck'
p6808
sVpdksh
p6809
S'pdksh'
p6810
sVkpkg
p6811
g1534
sVlmms
p6812
S'lmms'
p6813
sV/sdb
p6814
g191
sV/sdc
p6815
g191
sValec
p6816
g150
sS'15.04'
p6817
S'ubuntu_15.04'
p6818
sVgom
p6819
S'gom'
p6820
sVgoo
p6821
S'goo'
p6822
sS'gibbon'
p6823
g1273
sVconsole-tools
p6824
g4793
sVwalpaper
p6825
g2044
sVswsusp
p6826
g5473
sVlibpam-gnome-keyring
p6827
g711
sVacrobat
p6828
g6828
sVsodu
p6829
g1115
sVsynatpic
p6830
g234
sVopenssh
p6831
g506
sVopenssl
p6832
g506
sVghc6
p6833
g3125
sVslakware
p6834
g5373
sVsoda
p6835
g191
sVsodo
p6836
g1115
sVoss-compat
p6837
S'oss-compat'
p6838
sVgrub-efi
p6839
g863
sVtftp-hpa
p6840
g2825
sVrant
p6841
g5637
sVgxmame
p6842
g463
sVoboard
p6843
g320
sV#gentoo
p6844
g4695
sVlprm
p6845
g284
sVtor
p6846
g3235
sVntpdate
p6847
g2631
sVgeany
p6848
S'geany'
p6849
sVbyobu
p6850
S'byobu'
p6851
sVkeepassx
p6852
g1590
sVk9copy
p6853
S'k9copy'
p6854
sVgkrellm
p6855
g6295
sVfirestarter
p6856
g406
sg1040
g1040
sS'avaya'
p6857
S'avaya'
p6858
sVevilwm
p6859
S'evilwm'
p6860
sVksysguard
p6861
S'ksysguard'
p6862
sVstrenght
p6863
g2724
sVpgms
p6864
S'pms'
p6865
sVinteligent
p6866
g2035
sS'bridge'
p6867
S'bridge'
p6868
sVxserver-xorg-video-ati
p6869
g831
sVnetkit-inetd
p6870
S'netkit-inetd'
p6871
sS'ram'
p6872
S'ram'
p6873
sV/var/log/daemon
p6874
g1196
sS'apu'
p6875
S'apu'
p6876
sVrat
p6877
S'rat'
p6878
sVwminput
p6879
S'wminput'
p6880
sVrar
p6881
g1346
sVsynergyc
p6882
g39
sVcompiz*
p6883
g230
sVcompiz)
p6884
g230
sVuuid=
p6885
g2436
sg2813
g2813
sVglom
p6886
g4237
sVbst
p6887
g6887
sVglob
p6888
g4237
sVbsp
p6889
g6889
sVcompize
p6890
g230
sS'8.04'
p6891
g3702
sg1898
S'bsd'
p6892
sVbsa
p6893
g6893
sVcamps
p6894
g2912
sVncurses-dev
p6895
g4195
sg852
g852
sVrancid
p6896
g2766
sVenterprise
p6897
g6897
sVscreensaver
p6898
g483
sV#sudo
p6899
g1115
sVdups
p6900
g53
sVsaga
p6901
g1786
sS'sage'
p6902
g6902
sVportsentry
p6903
S'portsentry'
p6904
sVmediawiki
p6905
S'mediawiki'
p6906
sVmysql-common
p6907
g2644
sVpkg
p6908
g1534
sV3dchess
p6909
S'3dchess'
p6910
sVpyton
p6911
g485
sVfontforge
p6912
S'fontforge'
p6913
sV#gtk
p6914
g239
sVocr
p6915
S'gocr'
p6916
sVvgetty
p6917
g3331
sVlibgtk2-ruby
p6918
S'libgtk-3-0'
p6919
sVpython-glade2
p6920
g485
sVfluid
p6921
S'fluid'
p6922
sVvirtaulbox
p6923
g370
sVpop3
p6924
g609
sS'amazon'
p6925
g6925
sVadesklets
p6926
g1017
sVrepors
p6927
g1686
sVhttrack
p6928
S'httrack'
p6929
sVf-spot
p6930
g2069
sVpython-apt
p6931
g485
sVdselect
p6932
S'dselect'
p6933
sS'motherboard'
p6934
S'motherboard'
p6935
sVnut
p6936
S'nut'
p6937
sS'v4l'
p6938
g6938
sVlibopenal1
p6939
S'libopenal-data'
p6940
sVbin2iso
p6941
g1412
sVfinger
p6942
g29
sVxcaht
p6943
g335
sVmui
p6944
g6944
sVsftp
p6945
g1958
sV/phpmyadmin
p6946
g3220
sVnews
p6947
g6947
sVxchat-indicator
p6948
g335
sVhplip
p6949
S'hplip'
p6950
sVamarok
p6951
g985
sVdocbook
p6952
S'docbook'
p6953
sVdiscover1
p6954
g6427
sVmail-notification-evolution
p6955
g4676
sVxscreensaver
p6956
g1575
sVnbtscan
p6957
S'nbtscan'
p6958
sVbeef
p6959
g4306
sVnautilus-share
p6960
g437
sV/opt/
p6961
g1759
sVnetbase
p6962
S'netbase'
p6963
sVenterprises
p6964
g6897
sVkftpgrabber
p6965
S'kftpgrabber'
p6966
sVdepo
p6967
g1686
sV/sudo
p6968
g1115
sVfceu
p6969
S'fceu'
p6970
sVpc-bsd
p6971
g6971
sVclaes
p6972
g354
sVdvdrip
p6973
g3294
sVapci
p6974
g2532
sV#banshee
p6975
g4588
sVpcmanfm
p6976
S'pcmanfm'
p6977
sVlibgnomeui-dev
p6978
S'libgnomeui-0'
p6979
sVxdiskusage
p6980
S'xdiskusage'
p6981
sVgrub2)
p6982
g863
sVsunaptic
p6983
g234
sVwount
p6984
g603
sV`dpkg
p6985
g1534
sVsched
p6986
g4082
sVnumerical
p6987
g6987
sVnormalization
p6988
g6988
sVcycle
p6989
g6436
sVsyslogd
p6990
g531
sVusbmount
p6991
S'usbmount'
p6992
sVmyth-tv
p6993
g1190
sVhdparam
p6994
g922
sVsyslogs
p6995
g1196
sVcompwiz
p6996
g230
sValarms
p6997
g4606
sVsynergys
p6998
g39
sVcapi
p6999
g2532
sVgilda
p7000
g475
sS'laptop'
p7001
S'laptop'
p7002
sVgreenwich
p7003
S'greenwich'
p7004
sVunzips
p7005
g1906
sValsamixer-gui
p7006
g6164
sVinterprete
p7007
g1314
sS'elf'
p7008
g7008
sVconcky
p7009
g1234
sVamsynth
p7010
S'amsynth'
p7011
sS'pci-x'
p7012
S'pci-x'
p7013
sVscren
p7014
g290
sS'salesforce.com'
p7015
S'salesforce.com'
p7016
sVspanner
p7017
g2067
sVrumor
p7018
g4553
sVninjas
p7019
g3721
sg1238
g1238
sVhunt
p7020
S'hunt'
p7021
sVxemacs
p7022
g487
sVrf_kill
p7023
g2000
sVclvm
p7024
g1507
sVacad
p7025
g3087
sVswfdec-mozilla
p7026
g714
sVwakeups
p7027
g4437
sVnetwork-config
p7028
g3398
sS'sandisk'
p7029
S'sandisk'
p7030
sS'indirect'
p7031
g7031
sVip_tables
p7032
g1048
sVhibernates
p7033
g25
sVicc
p7034
g2046
sVsynapic
p7035
g234
sS'ice'
p7036
g7036
sVubiquity
p7037
S'ubiquity'
p7038
sS'ics'
p7039
g7039
sVicq
p7040
g5280
sS'ict'
p7041
S'ict'
p7042
sVcorg
p7043
g1117
sS'hsf'
p7044
S'hsf'
p7045
sVgksude
p7046
g2529
sVdiscount
p7047
S'discount'
p7048
sVlamps
p7049
g4561
sV#thunderbird
p7050
g224
sVnetcat-openbsd
p7051
g4193
sVfglrx)
p7052
g208
sVfglrx*
p7053
g208
sVruntime
p7054
g7054
sVmcop
p7055
g5446
sVopenswan
p7056
S'openswan'
p7057
sS'ppa'
p7058
g7058
sS'ppd'
p7059
g7059
sVgppp
p7060
g1839
sVfat32
p7061
S'fat32'
p7062
sVppm
p7063
S'ppm'
p7064
sVppp
p7065
g1839
sVpluggins
p7066
g2140
sVgit
p7067
g597
sS'gif'
p7068
g7068
sVantiword
p7069
S'antiword'
p7070
sV#git
p7071
g597
sVgij
p7072
g6243
sS'heap'
p7073
g7073
sVthttpd
p7074
g618
sVsupp
p7075
g5126
sVvivo
p7076
g446
sVpckg
p7077
g1534
sVmtrr
p7078
g2969
sVia32-libs
p7079
g37
sVttf-freefont
p7080
g1264
sVautoconf
p7081
g4063
sVpptpconfig
p7082
S'pppconfig'
p7083
sVdesmume
p7084
S'desmume'
p7085
sVtrin
p7086
g2010
sg3972
g3972
sVnautillus
p7087
g437
sS'uri'
p7088
g7088
sVcobbler
p7089
S'cobbler'
p7090
sVwmctrl
p7091
S'wmctrl'
p7092
sS'nl'
p7093
g7093
sV7zip
p7094
g1988
sVcommercials
p7095
g3840
sVtin
p7096
g4542
sV`wget
p7097
g1788
sS'tie'
p7098
g7098
sVnode
p7099
S'node'
p7100
sVcpkg
p7101
g1534
sS'diagnostics'
p7102
g7102
sVxorg-dev
p7103
g1117
sVnods
p7104
g1857
sg1712
S'sql'
p7105
sVubuntu-keyring
p7106
S'ubuntu-keyring'
p7107
sVsynnaptic
p7108
g234
sV#proftpd
p7109
g80
sS'dual-core'
p7110
S'dual-core'
p7111
sVi386)
p7112
g1423
sg1410
g1410
sS'rom'
p7113
S'rom'
p7114
sVlinux-headers-*
p7115
g1062
sVexim4
p7116
g372
sS'serialport'
p7117
S'serialport'
p7118
sVrecode
p7119
S'recode'
p7120
sV#freebsd
p7121
Vfreebsd
p7122
sVpaprefs
p7123
S'paprefs'
p7124
sVhibernated
p7125
g25
sVgnus
p7126
g2839
sVmpg123
p7127
S'mpg123'
p7128
sVmatchbox
p7129
S'matchbox'
p7130
sS'surfnet'
p7131
S'surfnet'
p7132
sVimaps
p7133
g4580
sS'partitiontable'
p7134
g7134
sVchuck_
p7135
g6808
sVresample
p7136
S'resample'
p7137
sS'trident'
p7138
g7138
sVmetbsd
p7139
g669
sVfirefox32
p7140
g220
sVcook
p7141
S'cook'
p7142
sVpartitions
p7143
g852
sVclouds
p7144
g4147
sVimpressive
p7145
S'impressive'
p7146
sVcloudy
p7147
g4147
sVeclipse-jdt
p7148
g2584
sVlibfam0
p7149
S'libfam-dev'
p7150
sVrythmbox
p7151
g749
sS'pmu'
p7152
S'pmu'
p7153
sVpms
p7154
g6865
sVtrend
p7155
S'trend'
p7156
sVclam-av
p7157
g5609
sVamarock
p7158
g985
sVlibfaac0
p7159
S'libfaac-dev'
p7160
sVgksudo
p7161
g2529
sVlocalepurge
p7162
S'localepurge'
p7163
sVegtk
p7164
g239
sVgegl
p7165
S'gegl'
p7166
sVsysadmins
p7167
g2175
sVpostmap
p7168
g3638
sValsa-tools-gui
p7169
g1956
sVcourier-base
p7170
g3216
sVgconfig
p7171
g814
sVdots)
p7172
g402
sVcronjob
p7173
g1466
sg292
g292
sVrestricted-extras
p7174
g2008
sVlightwave
p7175
g7175
sVnetworkmanager
p7176
g3398
sVgamepad
p7177
g4402
sVnmap
p7178
S'nmap'
p7179
sVparellel
p7180
g1031
sVflashplugin
p7181
g607
sg3521
g3521
sVx11-xserver-utils
p7182
g810
sVubuntu-destkop
p7183
g1443
sVmsn
p7184
g100
sS'iphone'
p7185
S'iphone'
p7186
sVsimple-ccsm
p7187
g1022
sVflumotion
p7188
S'flumotion'
p7189
sVprep
p7190
g1543
sVdiagrams
p7191
g5059
sVscite
p7192
S'scite'
p7193
sS'symantec'
p7194
S'symantec'
p7195
sVxcfg
p7196
g33
sVpython-django
p7197
g485
sVnetsend
p7198
S'netsend'
p7199
sVplan9
p7200
g1402
sS'diskdrive'
p7201
S'diskdrive'
p7202
sVpython-freevo
p7203
g485
sVtrackers
p7204
g2100
sVtrackerd
p7205
g2100
sV#perl
p7206
g243
sVxvmc
p7207
g3197
sV$pid
p7208
g4673
sVryhthmbox
p7209
g749
sVpython-uno
p7210
g485
sVhydrogen
p7211
S'hydrogen'
p7212
sVpop3d
p7213
g609
sS'vodafone'
p7214
S'vodafone'
p7215
sS'trinitron'
p7216
S'trinitron'
p7217
sVinforms
p7218
S'inform'
p7219
sVbirthday
p7220
S'birthday'
p7221
sVdebfoster
p7222
S'debfoster'
p7223
sVxorg
p7224
g1117
sVxorf
p7225
g1117
sVinstanbul
p7226
g4013
sVcombiz
p7227
g230
sVspybot
p7228
g5205
sVamuse
p7229
g3545
sS'primarymemory'
p7230
S'primarymemory'
p7231
sVthuderbird
p7232
g224
sVlugin
p7233
g368
sV#vim
p7234
g120
sS'extractor'
p7235
g7235
sVddrescue
p7236
g1753
sVfirmware-b43-installer
p7237
g1966
sVnvidia-common
p7238
g265
sVmotions
p7239
g869
sS'ortec'
p7240
S'ortec'
p7241
sVanjuta
p7242
S'anjuta'
p7243
sVtagtool
p7244
S'tagtool'
p7245
sVgtg
p7246
S'gtg'
p7247
sVcutted
p7248
S'cutter'
p7249
sS'microcomputer'
p7250
S'microcomputer'
p7251
sVgtk
p7252
g1911
sVjoysticks
p7253
g4402
sS'gts'
p7254
g7254
sS'puzzle'
p7255
g7255
sVcutter
p7256
S'cutter'
p7257
sVpostgres
p7258
g2538
sVfirmware-b43-lpphy-installer
p7259
g1966
sVdovecot-postfix
p7260
g5854
sVlibgconf2-dev
p7261
S'libgconf-2-4'
p7262
sVsmokeping
p7263
S'smokeping'
p7264
sVnatilus
p7265
g437
sVawstats
p7266
S'awstats'
p7267
sVzlibc
p7268
g6557
sVejabberd
p7269
S'ejabberd'
p7270
sVpayware
p7271
g7271
sVpthon
p7272
g485
sVettercap
p7273
S'ettercap'
p7274
sVmysql5
p7275
g2538
sVtorcs
p7276
S'torcs'
p7277
sVgaps
p7278
g3665
sVmysql)
p7279
g2538
sVmysql*
p7280
g2538
sVmysql/
p7281
g2538
sVwondershaper
p7282
S'wondershaper'
p7283
sS'10.04.2'
p7284
S'ubuntu_10.04.2'
p7285
sS'10.04.3'
p7286
S'ubuntu_10.04.3'
p7287
sS'10.04.1'
p7288
S'ubuntu_10.04.1'
p7289
sVlibpcre3
p7290
S'libpcre-ocaml'
p7291
sS'10.04.4'
p7292
S'ubuntu_10.04.4'
p7293
sVlmsensors
p7294
g195
sg1736
g1736
sVmysqli
p7295
g2538
sVfusion-icon
p7296
S'fusion-icon'
p7297
sV#rtorrent
p7298
g3645
sVindicator-sound
p7299
g263
sVvirtualbox-ose-dkms
p7300
g370
sVzomg
p7301
g4837
sVxkbset
p7302
S'xkbset'
p7303
sS'ebook'
p7304
g7304
sVmotion
p7305
g869
sVfontconfig-config
p7306
g5848
sVyum
p7307
g3315
sVjwm
p7308
S'jwm'
p7309
sS'swing'
p7310
g7310
sS'origin'
p7311
g7311
sVlibcanberra-gtk-module
p7312
S'libcanberra-dev'
p7313
sVclient-side
p7314
g7314
sVbuid-essential
p7315
g1647
sVe2undel
p7316
S'e2undel'
p7317
sVacct
p7318
S'acct'
p7319
sS'eurofiber'
p7320
S'eurofiber'
p7321
sVnfts
p7322
g6125
sVanalog
p7323
S'analog'
p7324
sViat
p7325
S'iat'
p7326
sVssta
p7327
g1786
sS'integratedcircuit'
p7328
S'integratedcircuit'
p7329
sVhug
p7330
S'hugs'
p7331
sS'hub'
p7332
S'hub'
p7333
sVtexlive-latex-extra
p7334
g392
sVbsd-mailx
p7335
S'bsd-mailx'
p7336
sS'9.04'
p7337
g982
sVmsn-pecan
p7338
S'msn-pecan'
p7339
sVipsec-tools
p7340
S'ipsec-tools'
p7341
sVenigma
p7342
S'enigma'
p7343
sVtotem-xine
p7344
g398
sS'macbookvirtualmachine'
p7345
g7345
sVposix
p7346
S'posix'
p7347
sVsrpm
p7348
g4417
sVpre
p7349
g7349
sS'802.11e'
p7350
S'802.11e'
p7351
sS'802.11g'
p7352
S'802.11g'
p7353
sVgonme
p7354
g45
sS'802.11h'
p7355
S'802.11h'
p7356
sS'802.11k'
p7357
S'802.11k'
p7358
sS'802.11j'
p7359
S'802.11j'
p7360
sS'802.11m'
p7361
S'802.11m'
p7362
sVruntimes
p7363
g7054
sVant
p7364
S'ant'
p7365
sS'802.11p'
p7366
S'802.11p'
p7367
sS'802.11s'
p7368
S'802.11s'
p7369
sS'802.11r'
p7370
S'802.11r'
p7371
sVfrotz
p7372
S'frotz'
p7373
sVflwm
p7374
g5317
sS'802.11x'
p7375
S'802.11x'
p7376
sVdconf
p7377
g5756
sVxubuntu-desktop)
p7378
g5168
sValpa
p7379
g1956
sVbittornado
p7380
g2190
sVstrengths
p7381
g2724
sVrshd
p7382
g535
sVsurf
p7383
g3649
sVbiff
p7384
g388
sVphp5-sqlite
p7385
g624
sVvisitors
p7386
S'visitors'
p7387
sVfcc
p7388
S'fcc'
p7389
sVnatilius
p7390
g437
sVgunzip
p7391
g1906
sVlatex
p7392
S'latex'
p7393
sVgnome-core-devel
p7394
g45
sVeclipse-platform
p7395
g2584
sVfakeroot
p7396
S'fakeroot'
p7397
sVgnome-session
p7398
g45
sVsenior
p7399
g5226
sS'catalyst'
p7400
g7400
sVtron
p7401
g1466
sVrythumbox
p7402
g749
sVanjunta
p7403
S'anjuta'
p7404
sVnexuiz-data
p7405
g1354
sVpre-emptive
p7406
g7406
sVdebians
p7407
g6235
sVcding
p7408
g5716
sVcrime
p7409
g949
sVasoundconf-gtk
p7410
S'asoundconf-gtk'
p7411
sVos-prober
p7412
g4585
sVhamster-applet
p7413
S'hamster-applet'
p7414
sVpython-dbus
p7415
g485
sVcpio
p7416
S'cpio'
p7417
sS'ssl'
p7418
g7418
sVtailor
p7419
S'tailor'
p7420
sVssh
p7421
g535
sS'ssd'
p7422
S'ssd'
p7423
sVgetit
p7424
g857
sg659
g659
sVnaultilus
p7425
g437
sVmpg321
p7426
S'mpg123'
p7427
sVxnest
p7428
g3694
sVbison
p7429
S'bison'
p7430
sVoss)
p7431
g1956
sVrms
p7432
S'vrms'
p7433
sVrmp
p7434
g4417
sVzeitgeist
p7435
S'zeitgeist'
p7436
sVubuquity
p7437
g7038
sVcompiz-plugins-extra
p7438
g230
sVparking
p7439
g4978
sVgweled
p7440
S'gweled'
p7441
sVxscreensaver-gl
p7442
g1575
sVfirefix
p7443
g220
sVchromeium
p7444
g3444
sVcharaters
p7445
g429
sVubuntu-based
p7446
g1443
sVrumours
p7447
g4553
sVmailto=
p7448
g2285
sVsmbclient
p7449
S'smbclient'
p7450
sS'blu-ray'
p7451
S'blu-ray'
p7452
sVgecko-mediaplayer
p7453
S'gecko-mediaplayer'
p7454
sV/var/log/messages`
p7455
g1196
sVntsf
p7456
g6125
sVgroundhog
p7457
g1069
sVauthoring
p7458
g7458
sVp2p
p7459
g1010
sVpppconfig
p7460
g7083
sVxffm
p7461
g5813
sVpon
p7462
g7083
sS'pod'
p7463
g7463
sS'poe'
p7464
S'poe'
p7465
sS'raring'
p7466
g201
sV*dm
p7467
g1088
sVdreamwaver
p7468
g400
sVgocr
p7469
g6916
sS'pci'
p7470
S'pci'
p7471
sVvlc*
p7472
g513
sVvlc)
p7473
g513
sg4228
g4228
sVtiger
p7474
S'tiger'
p7475
sS'e-reader'
p7476
S'e-reader'
p7477
sVpilot
p7478
g341
sVgnome-keyring
p7479
g45
sVpca
p7480
S'pcb'
p7481
sVwcid
p7482
g1870
sVpidign
p7483
g112
sVmount
p7484
g273
sVkdelibs5-dev
p7485
g116
sVdorky
p7486
g685
sVmound
p7487
g273
sVmplyer
p7488
g1664
sVgdmap
p7489
S'gdmap'
p7490
sVwicd-client
p7491
g1870
sViceweasle
p7492
g4446
sS'parse'
p7493
g7493
sS'clutter'
p7494
g7494
sVconntrack
p7495
S'conntrack'
p7496
sVrhythmbox
p7497
g749
sVkppp
p7498
S'kppp'
p7499
sVinitramfs-tools
p7500
S'initramfs-tools'
p7501
sVmousepad
p7502
S'mousepad'
p7503
sVproftd
p7504
g80
sVbowl
p7505
g4141
sVgdms
p7506
g1088
sVshiki-colors
p7507
S'shiki-brave-theme'
p7508
sVglade3
p7509
g1445
sVcatfish
p7510
S'catfish'
p7511
sVgcrontab
p7512
g1466
sVkonsol
p7513
g3254
sVisle
p7514
g5802
sVgdm`
p7515
g1088
sVproftp
p7516
g80
sVbussiness
p7517
g3907
sg2910
g2910
sS'weed'
p7518
g7518
sV/dev/md0
p7519
g2804
sVgamin
p7520
S'gamin'
p7521
sVgdm3
p7522
g1088
sVsreen
p7523
g290
sVgamix
p7524
g4410
sVgdm)
p7525
g1088
sS'modem'
p7526
S'modem'
p7527
sVrythombox
p7528
g749
sVsudoa
p7529
g1115
sVquerty
p7530
g3786
sVunicode
p7531
S'unicode'
p7532
sVsudos
p7533
g1115
sVkile
p7534
g2884
sg3346
g3346
sVsambe
p7535
g3346
sVlibgl1-mesa-dri-experimental
p7536
g894
sS'readonly'
p7537
g7537
sVapache2
p7538
g2782
sVblog
p7539
g7539
sVppoeconf
p7540
g6655
sVkmymoney
p7541
g1908
sVlibreoffice
p7542
S'libreoffice'
p7543
sVross
p7544
g1956
sVsudo)
p7545
g1115
sVsudo*
p7546
g1115
sVsudo/
p7547
g1115
sVlinux-image-generic
p7548
g137
sS'touchpad'
p7549
S'touchpad'
p7550
sVscribus
p7551
g1441
sVmgetty
p7552
g3331
sVsnort
p7553
S'snort'
p7554
sVman-pages
p7555
g1051
sVportables
p7556
g5587
sVrsync
p7557
g267
sVintltool
p7558
S'intltool'
p7559
sVxine
p7560
g398
sVrpm
p7561
g4417
sVgoogled
p7562
S'google'
p7563
sVautomake
p7564
S'automake'
p7565
sS'alu'
p7566
S'alu'
p7567
sVsysnaptic
p7568
g234
sV/devs
p7569
g1122
sVpavucontrol
p7570
S'pavucontrol'
p7571
sVnautalus
p7572
g437
sVpartclone
p7573
S'partclone'
p7574
sVkenel
p7575
g1327
sVcompiz-config-settings-manager
p7576
g1022
sVxerver-xorg
p7577
g831
sVtrailers
p7578
g3910
sVdcfldd
p7579
S'dcfldd'
p7580
sV/dev/
p7581
g1122
sS'splashscreen'
p7582
g7582
sS'ow'
p7583
g7583
sS'os'
p7584
g7584
sS'curses'
p7585
g5918
sS'ethernetcable'
p7586
g7586
sVfvwm
p7587
g5317
sVtcltls
p7588
S'tcltls'
p7589
sVtracepath
p7590
g2381
sVflashplugin*
p7591
g607
sVjuk
p7592
S'juk'
p7593
sVgibt
p7594
g597
sS'togglekey'
p7595
S'togglekey'
p7596
sVgwget
p7597
g1788
sS'bullet'
p7598
g7598
sVflash-plugin-nonfree
p7599
g607
sVapache2-mpm-prefork
p7600
g2782
sVavahi-autoipd
p7601
g5041
sVnetop
p7602
g639
sVtoilet
p7603
S'toilet'
p7604
sVcba
p7605
S'cba'
p7606
sVtasty
p7607
g2627
sVsaned
p7608
g595
sS'adsl'
p7609
S'adsl'
p7610
sVaisleriot
p7611
S'aisleriot'
p7612
sVwysiwig
p7613
g975
sVabyss
p7614
S'abyss'
p7615
sVdriconf
p7616
S'driconf'
p7617
sS'igp'
p7618
S'igp'
p7619
sVpiracy
p7620
g7620
sVncdu
p7621
S'ncdu'
p7622
sVgettext
p7623
S'gettext'
p7624
sVrubber
p7625
S'rubber'
p7626
sVcollaborative
p7627
g7627
sVsuod
p7628
g1115
sVlibmysqlclient15-dev
p7629
g3675
sVunity-2d
p7630
g1611
sVotf
p7631
g796
sVgnone
p7632
g45
sVymessenger
p7633
g100
sS'wifi'
p7634
S'wifi'
p7635
sVusbutils
p7636
S'usbutils'
p7637
sVperl-base
p7638
g243
sV-686
p7639
g1423
sVsynaptice
p7640
g234
sVcommand-not-found
p7641
S'command-not-found'
p7642
sVfancontrol
p7643
S'fancontrol'
p7644
sVlivdvdcss2
p7645
g6022
sVdist
p7646
S'dist'
p7647
sVdepracated
p7648
g4173
sV$hostname
p7649
g325
sVscreenie
p7650
S'screenie'
p7651
sVale
p7652
S'ale'
p7653
sVbasero
p7654
g5006
sVlibreadline5
p7655
S'libreadline-dbg'
p7656
sVduos
p7657
g2241
sS'ptp'
p7658
S'ptp'
p7659
sVfte
p7660
S'fte'
p7661
sS'graphicscard'
p7662
g7662
sVfax
p7663
S'fax'
p7664
sVpadman
p7665
g1723
sS'solvinity'
p7666
S'solvinity'
p7667
sVinfringement
p7668
g3845
sVbroadcomm
p7669
S'broadcom'
p7670
sg1607
g1607
sVnatuilus
p7671
g437
sVfam
p7672
S'fam'
p7673
sS'dapper'
p7674
g1500
sVxfree
p7675
g3290
sVlisp
p7676
g7676
sVvirtualizing
p7677
g346
sVfvwm-crystal
p7678
g5317
sVxmmc
p7679
g2709
sVboinc-manager
p7680
g4848
sVbuil-essential
p7681
g1647
sVtea
p7682
S'tea'
p7683
sVopenbox
p7684
S'openbox'
p7685
sS'tex'
p7686
g7686
sVsyslog
p7687
g1196
sVartha
p7688
S'artha'
p7689
sVdvdstyler
p7690
S'dvdstyler'
p7691
sVsud
p7692
g1115
sS'sub'
p7693
g7693
sVsoundjuicer
p7694
g6375
sVmldonkey-server
p7695
g751
sVntfs-progs
p7696
g678
sVsup
p7697
g5126
sVmemcached
p7698
S'memcached'
p7699
sVsux
p7700
S'sux'
p7701
sVtags
p7702
g1952
sVpdnsd
p7703
S'pdnsd'
p7704
sVxmm2
p7705
g6724
sVinverse
p7706
g7706
sVbitorrent
p7707
g49
sVakregator
p7708
S'akregator'
p7709
sVscreena
p7710
g290
sVtellico
p7711
S'tellico'
p7712
sVlibdbus-1-dev
p7713
g1979
sVcapslock
p7714
g431
sVjscalibrator
p7715
g4402
sS'ocelot'
p7716
g386
sVpdfs
p7717
g722
sVscreeny
p7718
g290
sV/var/log/syslog
p7719
g1196
sVupdate-notifier
p7720
g156
sVpidgin-libnotify
p7721
g112
sVnautilus-script-audio-convert
p7722
g437
sV/ati
p7723
g208
sViroffer
p7724
S'iroffer'
p7725
sVmiro
p7726
S'miro'
p7727
sVscreen)
p7728
g290
sVscreen-
p7729
g290
sVmirc
p7730
g352
sV#azureus
p7731
g139
sVscreen2
p7732
g290
sVscreen1
p7733
g290
sVscreen0
p7734
g290
sVxmoto
p7735
S'xmoto'
p7736
sVxsane
p7737
g2067
sVepiphany-browser
p7738
g66
sVsquish
p7739
g7739
sVlibvorbis0
p7740
g775
sS'topdesk'
p7741
S'topdesk'
p7742
sVconvmv
p7743
S'convmv'
p7744
sVberkely
p7745
g7745
sVplymounth
p7746
S'plymouth'
p7747
sVqemu-kvm
p7748
g271
sVgnome-system-log
p7749
g45
sVdovecot-imapd
p7750
g5854
sVpond
p7751
g7083
sVweplab
p7752
S'weplab'
p7753
sVlogcheck
p7754
S'logcheck'
p7755
sVfiglet
p7756
S'figlet'
p7757
sVnvidia-xsettings
p7758
g265
sVbanding
p7759
g1691
sg3779
g3779
sVaahh
p7760
g489
sVcapistrano
p7761
S'capistrano'
p7762
sS'8.04.4'
p7763
S'ubuntu_8.04.4'
p7764
sVtelnetd
p7765
S'telnetd'
p7766
sS'8.04.2'
p7767
S'ubuntu_8.04.2'
p7768
sS'8.04.3'
p7769
S'ubuntu_8.04.3'
p7770
sS'8.04.1'
p7771
S'ubuntu_8.04.1'
p7772
sVsandwich
p7773
g7773
sS'vlan'
p7774
S'vlan'
p7775
sVuqm
p7776
S'uqm'
p7777
sVchrooting
p7778
g760
sVgrandr
p7779
g692
sVpilots
p7780
g341
sVlha
p7781
S'lha'
p7782
sVkexec
p7783
g1436
sVhalibut
p7784
S'halibut'
p7785
sV#slackware
p7786
g5373
sVboot-loader
p7787
g578
sVrythymbox
p7788
g749
sVlibnet-ssleay-perl
p7789
S'libnet-address-ip-local-perl'
p7790
sV#libreoffice
p7791
g7543
sS'mission'
p7792
g7792
sVlogan
p7793
g368
sVhtop
p7794
S'htop'
p7795
sVfglrx-driver
p7796
g208
sVjava-gcj-compat
p7797
g344
sVemesene
p7798
g1900
sS'pram'
p7799
S'pram'
p7800
sVconsole-setup
p7801
g4793
sV$uid
p7802
g2436
sVpidigin
p7803
g112
sVluckybackup
p7804
S'luckybackup'
p7805
sVp7zip-rar
p7806
g2893
sVlinux-image
p7807
g137
sS'molexconnector'
p7808
S'molexconnector'
p7809
sS'sogeti'
p7810
S'sogeti'
p7811
sVcompriz
p7812
g230
sVmesa-common-dev
p7813
g2138
sVnicotine
p7814
g2666
sS'thinclient'
p7815
S'thinclient'
p7816
sVkmenuedit
p7817
S'kmenuedit'
p7818
sVdefoma
p7819
S'defoma'
p7820
sS'secret'
p7821
g7821
sVrepartition
p7822
g859
sVlubuntu
p7823
g168
sVset-int-prop
p7824
S'xinput'
p7825
sVfilemanger
p7826
g1211
sVread-edid
p7827
S'read-edid'
p7828
sVxtraceroute
p7829
g2381
sVsharutils
p7830
S'sharutils'
p7831
sVmonut
p7832
g603
sVdosemu
p7833
S'dosemu'
p7834
sVgtksudo
p7835
g2529
sVseahorse
p7836
S'seahorse'
p7837
sV$sudo
p7838
g1115
sV/ssh
p7839
g535
sVubuntu-dektop
p7840
g1443
sVcdma
p7841
g2586
sVding
p7842
S'ding'
p7843
sVwebcams
p7844
S'webcam'
p7845
sVvrdp
p7846
g90
sVgpgv
p7847
g1896
sS'notify'
p7848
g7848
sValacarte
p7849
g1944
sg1928
g1928
sVgpm
p7850
S'gpm'
p7851
sVgpe
p7852
S'gpe'
p7853
sVgpg
p7854
g1896
sVglipper
p7855
g5945
sVgpa
p7856
g1896
sVrails
p7857
g694
sVgpc
p7858
g763
sVrhymbox
p7859
g749
sVgpt
p7860
S'gpt'
p7861
sS'gpu'
p7862
S'gpu'
p7863
sVicedtea6-plugin
p7864
g3149
sVgpp
p7865
S'gpp'
p7866
sVheadache
p7867
g5910
sV#openssh
p7868
g506
sVinitramfs)
p7869
g2192
sV@tritium
p7870
g2869
sVxserver-xorg-input-wacom
p7871
g831
sVtoc2cue
p7872
g727
sVscince
p7873
g1170
sVking
p7874
g4652
sVkino
p7875
g5888
sg4509
g4509
sVgnomad2
p7876
S'gnomad2'
p7877
sVlibpng-dev
p7878
g958
sVvmbox
p7879
g370
sS'dslam'
p7880
S'dslam'
p7881
sVwinff
p7882
S'winff'
p7883
sVfluidsynth
p7884
S'fluidsynth'
p7885
sVacetoneiso
p7886
g6553
sV7z
p7887
g2893
sV/dev/input/js0
p7888
g4402
sVcedaga
p7889
g2961
sS'eft'
p7890
g5920
sVlibcurl4-dev
p7891
g2166
sVefi
p7892
S'uefi'
p7893
sVelectric
p7894
S'electric'
p7895
sS'react'
p7896
g7896
sVcopiz
p7897
g230
sVjsp
p7898
g3742
sVfilesystems
p7899
g500
sVvnstat
p7900
S'vnstat'
p7901
sVdealers
p7902
S'dealer'
p7903
sS'windows'
p7904
g7904
sVxserver-xorg`
p7905
g831
sS'mybrand'
p7906
S'mybrand'
p7907
sVgtkterm
p7908
S'gtkterm'
p7909
sVsbackup
p7910
S'sbackup'
p7911
sVfirefox-gnome-support
p7912
g220
sVcde
p7913
S'cde'
p7914
sS'rtf'
p7915
g7915
sVrtm
p7916
g7916
sVfbpager
p7917
S'fbpager'
p7918
sVcdw
p7919
S'cdw'
p7920
sS'cdr'
p7921
g7921
sS'detron'
p7922
S'detron'
p7923
sVcourier-authdaemon
p7924
g3216
sVe17
p7925
g210
sVcompiz-core
p7926
g230
sVxmonad
p7927
S'xmonad'
p7928
sS'triangle'
p7929
g7929
sVrhythmnbox
p7930
g749
sVscandisk
p7931
g7931
sVhdcp
p7932
g1249
sVemails
p7933
g2983
sS'overclocking'
p7934
S'overclocking'
p7935
sS'batteries'
p7936
g7936
sVapcupsd
p7937
S'apcupsd'
p7938
sVeasytag
p7939
S'easytag'
p7940
sS'gee'
p7941
g7941
sVsignify
p7942
S'signify'
p7943
sVgsfonts
p7944
g277
sVk-meleon
p7945
g7945
sVubunt
p7946
g1392
sVara
p7947
S'ara'
p7948
sVkylix
p7949
g7949
sVarc
p7950
S'arc'
p7951
sVarj
p7952
S'arj'
p7953
sVark
p7954
S'ark'
p7955
sVmplayer-mozilla
p7956
g1890
sVichat
p7957
g335
sVkpartx
p7958
S'kpartx'
p7959
sV#gcc
p7960
g2046
sVunixy
p7961
g1611
sVmsmtp
p7962
g118
sVh264
p7963
g4471
sVnewgroup
p7964
g310
sVtexmacs
p7965
S'texmacs'
p7966
sS'roman'
p7967
g7967
sVlsof
p7968
g4947
sVbonnie++
p7969
S'bonnie++'
p7970
sVazureus)
p7971
g139
sVduplicity
p7972
S'duplicity'
p7973
sVgucharmap
p7974
S'gucharmap'
p7975
sVravi
p7976
g800
sVtemrinal
p7977
g1766
sV`iptables
p7978
g1048
sS'java'
p7979
g7979
sVmoint
p7980
g603
sVvim-gtk
p7981
g120
sS'swf'
p7982
g7982
sVbittornado-gui
p7983
g2190
sS'pg'
p7984
g7984
sVtransmision
p7985
g2438
sVfrglx
p7986
g208
sVpendrivelinux
p7987
g70
sVgtklp
p7988
S'gtklp'
p7989
sS'mca'
p7990
S'mca'
p7991
sVlibavformat-dev
p7992
S'libavformat-dev'
p7993
sS'logger'
p7994
g7994
sVwysiwyg
p7995
g975
sVahaa
p7996
g489
sVaham
p7997
g489
sVfnfxd
p7998
S'fnfxd'
p7999
sVmypc
p8000
g733
sVgnash-common
p8001
g1524
sVbespoke
p8002
g8002
sVxcomposite
p8003
g4642
sVdemon
p8004
g257
sVrio
p8005
S'rio'
p8006
sVrig
p8007
S'rig'
p8008
sVopenssh-blacklist
p8009
g533
sVpgup
p8010
S'pgp'
p8011
sVminix
p8012
g8012
sVsqlite3
p8013
g6230
sVdh-make
p8014
g4308
sVx86
p8015
S'x86'
p8016
sVcartridge
p8017
g2458
sVflgx
p8018
g5240
sVyafc
p8019
S'yafc'
p8020
sS'robust'
p8021
g8021
sVpentoo
p8022
g4695
sVabcde
p8023
g1764
sS'edgy'
p8024
g5920
sVfoomatic-gui
p8025
S'foomatic-db'
p8026
sVautossh
p8027
S'autossh'
p8028
sVlibmad0
p8029
S'libmad-ocaml'
p8030
sVquemu
p8031
g271
sVeclipse-cdt
p8032
g2584
sVvbetool
p8033
S'vbetool'
p8034
sVgems
p8035
S'gems'
p8036
sS'tablet'
p8037
S'tablet'
p8038
sVworkers
p8039
g408
sVproftpd
p8040
g80
sVdefragging
p8041
g1040
sVbootsector
p8042
g578
sVpython2
p8043
g485
sVubuntu-desktop
p8044
g1443
sV#lvm
p8045
g1507
sVlovin
p8046
g368
sVsaphire
p8047
g4998
sVshotwell
p8048
S'shotwell'
p8049
sVreconf
p8050
g2432
sVbit-torrent
p8051
g49
sVpkg-config
p8052
g4971
sVyakuake
p8053
S'yakuake'
p8054
sVmailutils
p8055
S'mailutils'
p8056
sVhttp://localhost:631
p8057
g53
sVxvncviewer
p8058
g259
sVskype*
p8059
g2773
sVparms
p8060
g885
sg6557
g6557
sVwkhtmltopdf
p8061
S'wkhtmltopdf'
p8062
sVsnyaptic
p8063
g234
sS'prom'
p8064
S'prom'
p8065
sVxscreensaver-gl-extra
p8066
g1575
sS'informatica'
p8067
S'informatica'
p8068
sVlibgnome2-dev
p8069
g3977
sVjuju
p8070
S'juju'
p8071
sVs/w
p8072
g8072
sS'pipeline'
p8073
S'pipeline'
p8074
sVlibc6-dev
p8075
g1099
sVmcrypt
p8076
g910
sVparalel
p8077
g1031
sVglib2
p8078
g6557
sVtomboy
p8079
g5071
sVkdm
p8080
g3705
sVjohns
p8081
g1727
sVgcc4
p8082
g2046
sVgcc3
p8083
g2046
sVxinitd
p8084
g4735
sS'bezel'
p8085
S'bezel'
p8086
sS'xpm'
p8087
g8087
sVpartitionmanager
p8088
S'partitionmanager'
p8089
sVbrub
p8090
g863
sS'msi'
p8091
S'msi'
p8092
sVhelfen
p8093
g1213
sVaudacious
p8094
g2709
sV#empathy
p8095
g3599
sVkdb
p8096
S'kbd'
p8097
sVmediatomb
p8098
S'mediatomb'
p8099
sVtuxguitar
p8100
S'tuxguitar'
p8101
sVflash-player
p8102
g607
sVmediainfo
p8103
S'mediainfo'
p8104
sVw3m-img
p8105
g4516
sg5485
g5485
sVwap_supplicant
p8106
g576
sVtomcat6
p8107
S'tomcat6'
p8108
sVexhaile
p8109
g2854
sVrainbow
p8110
S'rainbow'
p8111
sVgru
p8112
g863
sVftp-ssl
p8113
g772
sVmocp
p8114
g5446
sVbchunk
p8115
g1412
sVrains
p8116
g694
sVdefrags
p8117
g1040
sVxirc
p8118
g352
sVbcom
p8119
g1432
sVlikewise-open
p8120
S'likewise-open'
p8121
sVlibxi-dev
p8122
g6346
sVposters
p8123
g1810
sVdos2unix
p8124
S'dos2unix'
p8125
sVreiserfs4
p8126
g892
sVjbuilder
p8127
g6570
sVvice
p8128
g4184
sVovpn
p8129
g2134
sVkarma
p8130
S'karma'
p8131
sVedubuntu-desktop
p8132
S'edubuntu-artwork'
p8133
sVnasm
p8134
g5144
sVdisper
p8135
S'disper'
p8136
sValien
p8137
g720
sVregexxer
p8138
S'regexxer'
p8139
sVliferea
p8140
S'liferea'
p8141
sVfuse-utils
p8142
g2873
sV#squid
p8143
g1894
sVtcllib
p8144
S'tcllib'
p8145
sVdhcp3-common
p8146
g2172
sVginn
p8147
S'ginn'
p8148
sVvor
p8149
S'vor'
p8150
sS'spoon'
p8151
g8151
sVemdebian-tools
p8152
S'emdebian-archive-keyring'
p8153
sVstuffit
p8154
g8154
sVloadlin
p8155
S'loadlin'
p8156
sVdpgk
p8157
g1534
sV#pidgin
p8158
g112
sVfsync
p8159
g267
sV/etc/grub/
p8160
g33
sg33
g33
sVrrd
p8161
g3329
sVfetchmail
p8162
S'fetchmail'
p8163
sVtasque
p8164
S'tasque'
p8165
sVffmpegx
p8166
g2859
sVcfv
p8167
g6394
sVacid
p8168
g4203
sVhostkey
p8169
g1458
sVfslint
p8170
S'fslint'
p8171
sVkwrite
p8172
S'kwrite'
p8173
sS'hdmi'
p8174
S'hdmi'
p8175
sV#xchat
p8176
g335
sS'sexy'
p8177
g8177
sVgoogle-chrome
p8178
g3444
sVscrollkeeper
p8179
S'scrollkeeper'
p8180
sS'warnings'
p8181
g8181
sVopensorce
p8182
g1933
sS'superuser'
p8183
g8183
sS'apple'
p8184
S'apple'
p8185
sVnopaste
p8186
S'nopaste'
p8187
sVacpitool
p8188
S'acpitool'
p8189
sS'hardy'
p8190
g3702
sg6114
g6114
sVapm
p8191
S'apm'
p8192
sVcurlftpfs
p8193
S'curlftpfs'
p8194
sVapg
p8195
S'apg'
p8196
sVpxe
p8197
g1161
sS'usb'
p8198
S'usb'
p8199
sVdoodle
p8200
S'doodle'
p8201
sVfeh
p8202
S'feh'
p8203
sVkvms
p8204
g2999
sVperlmagick
p8205
S'perlmagick'
p8206
sVmail-transport-agent
p8207
g4676
sVsynapics
p8208
g234
sS'chip'
p8209
S'chip'
p8210
sVfex
p8211
S'fex'
p8212
sVfglx
p8213
g208
sVchkrootkit
p8214
g5576
sVsuxx
p8215
g7701
sVvinagre
p8216
S'vinagre'
p8217
sVrabbit
p8218
S'rabbit'
p8219
sVvirtualbox-ose
p8220
g370
sVlibxml2-dev
p8221
g2315
sVxdmx
p8222
g6429
sVioquake3
p8223
S'ioquake3'
p8224
sVrecusive
p8225
g3779
sVslapd
p8226
S'slapd'
p8227
sS'tap'
p8228
g8228
sVtag
p8229
S'tag'
p8230
sVdaemontools
p8231
S'daemontools'
p8232
sVrars
p8233
g1346
sVsic
p8234
S'sic'
p8235
sVdwm
p8236
S'dwm'
p8237
sVmsdn
p8238
g100
sVinsserv
p8239
S'insserv'
p8240
sVtack
p8241
S'tack'
p8242
sVsimbolic
p8243
g2480
sVophcrack
p8244
S'ophcrack'
p8245
sVabs-guide
p8246
S'abs-guide'
p8247
sVbudge
p8248
g1676
sVlxpanel
p8249
S'lxpanel'
p8250
sg7122
S'freebsd'
p8251
sVgtranscode
p8252
g665
sVkbd
p8253
g8097
sVpulses
p8254
g43
sVquake
p8255
g696
sg1314
g1314
sS'badger'
p8256
g102
sVmtpaint
p8257
S'mtpaint'
p8258
sVthunar
p8259
g1211
sVconsolekit
p8260
S'consolekit'
p8261
sVorange
p8262
g1495
sVcovered
p8263
S'covered'
p8264
sVchron
p8265
g1466
sS'nspyre'
p8266
S'nspyre'
p8267
sVflex
p8268
g1651
sVpulse*
p8269
g43
sS'devel'
p8270
g8270
sVkgcc
p8271
g2046
sVemerald
p8272
g781
sVflea
p8273
g1651
sVkb3
p8274
g816
sVclamav-freshclam
p8275
g5609
sVfreemat
p8276
S'freemat'
p8277
sVbsod
p8278
g1898
sVdarcs
p8279
S'darcs'
p8280
sVjava-packages
p8281
g344
sVtrac
p8282
S'trac'
p8283
sVesmtp
p8284
g118
sVfuze
p8285
g2873
sVnfs
p8286
g4287
sV#xbmc
p8287
g3197
sS'cry'
p8288
g8288
sV$cc
p8289
g2046
sVwidgits
p8290
g59
sVdesklets
p8291
g1017
sVebooks
p8292
g7304
sVvirt-manager
p8293
S'virt-goodies'
p8294
sVlibavcodec-dev
p8295
S'libavcodec-dev'
p8296
sVvcl
p8297
g513
sS'deloitte'
p8298
S'deloitte'
p8299
sVoem-config
p8300
S'oem-config'
p8301
sVdbconfig-common
p8302
S'dbconfig-common'
p8303
sVxinput
p8304
g7825
sVphp-file
p8305
g624
sVdictionary
p8306
g4317
sS'ipod'
p8307
S'ipod'
p8308
sVamarok2
p8309
g985
sS'philis'
p8310
S'philis'
p8311
sS'lts'
p8312
g8312
sVkdict
p8313
g4317
sVgnomey
p8314
g45
sVslocate
p8315
S'mlocate'
p8316
sVxord
p8317
g1117
sV*fingers
p8318
g29
sVkcron
p8319
g1466
sVicedtea-gcjwebplugin
p8320
g3149
sVbois
p8321
g1806
sS'6.06.2'
p8322
S'ubuntu_6.06.2'
p8323
sVapturl
p8324
S'apturl'
p8325
sS'6.06.1'
p8326
S'ubuntu_6.06.1'
p8327
sg142
g142
sVtunderbird
p8328
g224
sVarista
p8329
S'arista'
p8330
sg4602
g4602
sVpotty
p8331
g1291
sVmicrosft
p8332
g1569
sVboil
p8333
g4141
sS'transistor'
p8334
S'transistor'
p8335
sVquagga
p8336
S'quagga'
p8337
sVktorrent
p8338
g457
sVbsdutils
p8339
S'bsdutils'
p8340
sVubuntu-artwork
p8341
g6545
sVg4l
p8342
g1673
sVlion
p8343
S'ion'
p8344
sVclip
p8345
S'clips'
p8346
sVlibapache2-mod-wsgi
p8347
g1546
sVringer
p8348
g29
sg3629
g3629
sVblip
p8349
g793
sVaptoncd
p8350
S'aptoncd'
p8351
sVgnomebacker
p8352
g816
sS'som'
p8353
S'som'
p8354
sVinform
p8355
g7219
sVlibqt4-dev
p8356
g1086
sVlmsensor
p8357
g195
sVmozilla-player
p8358
g1890
sVscons
p8359
S'scons'
p8360
sVgnome-applet
p8361
g45
sVsynapti
p8362
g234
sVwhoopsie
p8363
S'whoopsie'
p8364
sVsda1)
p8365
g191
sVsoundconvertor
p8366
g114
sVsasl2-bin
p8367
S'sasl2-bin'
p8368
sVxrandr
p8369
g692
sVnoggin
p8370
g368
sVphp4-pear
p8371
g624
sVrox-filer
p8372
S'rox-filer'
p8373
sS'fujitsu'
p8374
S'fujitsu'
p8375
sg7893
g7893
sVvim-tiny
p8376
g120
sVgmount
p8377
g603
sS'opticalmedia'
p8378
S'opticalmedia'
p8379
sV/sda1
p8380
g191
sVpianobar
p8381
S'pianobar'
p8382
sVjava-package
p8383
g344
sVdemons
p8384
g257
sVcodesc
p8385
g1851
sS'chicken'
p8386
g8386
sVgimp-plugin-registry
p8387
g951
sVfeat
p8388
g1607
sVexfalso
p8389
S'exfalso'
p8390
sVsysv-rc
p8391
g4662
sS'fiberopticcable'
p8392
S'fiberopticcable'
p8393
sVxcfe
p8394
g2944
sVroxterm
p8395
S'roxterm'
p8396
sVhttp://unetbootin.sourceforge.net/
p8397
g70
sVmozilla-plugin-gnash
p8398
g2831
sVdvd/cd
p8399
g523
sVbandwith
p8400
g4857
sS'bluray'
p8401
g8401
sVnaut
p8402
g2723
sVquerry
p8403
g3786
sVunison
p8404
g396
sS'ccompiler'
p8405
g8405
sVrpcbind
p8406
S'rpcbind'
p8407
sVtango-icon-theme
p8408
S'tango-accesscontrol'
p8409
sVgahh
p8410
g489
sVmultipart
p8411
g1346
sVkeylaunch
p8412
S'keylaunch'
p8413
sVklibc
p8414
g6557
sVgmail
p8415
g4280
sVarmagetronad
p8416
S'armagetronad'
p8417
sVdll
p8418
g8418
sVgenius
p8419
g1245
sVg++
p8420
g1863
sVmjpegtools
p8421
S'mjpegtools'
p8422
sVwin9x
p8423
g2961
sV#compiz-fusion
p8424
g230
sVgwibber
p8425
g6194
sVx-server
p8426
g831
sVjoe
p8427
g1461
sVshfs
p8428
g1709
sVlanguage-pack-fr
p8429
g2303
sVcdrecord
p8430
S'cdrecord'
p8431
sVgrail
p8432
g4280
sS'priceline.com'
p8433
S'priceline.com'
p8434
sVgnuserv
p8435
S'gnuserv'
p8436
sVppa-purge
p8437
S'ppa-purge'
p8438
sVnautulus
p8439
g437
sS'hyphen'
p8440
g8440
sS'rpc'
p8441
g8441
sVqemu
p8442
g271
sVmosix
p8443
g7346
sVabiword
p8444
S'abiword'
p8445
sVmit-scheme
p8446
S'mit-scheme'
p8447
sVgentoos
p8448
g4695
sVesound
p8449
g3019
sV-verbose
p8450
g1153
sS'verizon'
p8451
S'verizon'
p8452
sVdopewars
p8453
S'dopewars'
p8454
sVtkpod
p8455
g1620
sVsaner
p8456
g595
sVpcman
p8457
g1723
sVx-dev
p8458
g2471
sS'memorymodule'
p8459
S'memorymodule'
p8460
sVgentoo)
p8461
g4695
sVmozilla-firefox-gnome-support
p8462
g220
sS'koning'
p8463
S'koning'
p8464
sVhightlight
p8465
g2325
sVzsync
p8466
g267
sVunworkable
p8467
S'unworkable'
p8468
sVavi
p8469
g803
sVflpsed
p8470
S'flpsed'
p8471
sVgimp2
p8472
g951
sVmousetweaks
p8473
S'mousetweaks'
p8474
sVnjam
p8475
S'jam'
p8476
sVcross
p8477
g8477
sVunite
p8478
g1611
sVunity
p8479
g1611
sVince
p8480
g1170
sVunits
p8481
g88
sVirissi
p8482
g58
sVgimp)
p8483
g951
sVbeast
p8484
g4898
sVgnome-panel&
p8485
g45
sVgimps
p8486
g951
sVswfdec
p8487
g1524
sVunmout
p8488
g603
sS'pda'
p8489
S'pda'
p8490
sVpdfedit
p8491
g722
sVmhhh
p8492
g489
sVpythong
p8493
g485
sVgproftp
p8494
g80
sVnanos
p8495
g304
sVtcl
p8496
S'tcl'
p8497
sVwebui
p8498
g6321
sVcasper
p8499
g1181
sVgm-notify
p8500
S'gm-notify'
p8501
sVpythons
p8502
g485
sVsmarthost
p8503
g118
sVmanpage
p8504
g1051
sS'console'
p8505
S'console'
p8506
sVamd64
p8507
g3357
sVc/c++)
p8508
g1863
sVonboards
p8509
g320
sVgtk-recordmydesktop
p8510
g753
sVapparmor
p8511
g4233
sVnano_
p8512
g304
sVjffs
p8513
g892
sVlibasound2-dev
p8514
g4181
sVpython)
p8515
g485
sVmyth
p8516
S'myth'
p8517
sVsice
p8518
g1170
sS'cpan'
p8519
g8519
sVluvcview
p8520
S'luvcview'
p8521
sVparition
p8522
g852
sVpython3
p8523
S'python3'
p8524
sVhomebank
p8525
S'homebank'
p8526
sVonboard)
p8527
g320
sVpopcon
p8528
S'popcon'
p8529
sVkde
p8530
g3703
sValsaplayer
p8531
S'alsaplayer'
p8532
sV*ubuntu-desktop
p8533
g1443
sVttf-xfree86-nonfree
p8534
g1264
sVati/radeon
p8535
g208
sVpython-imaging
p8536
g485
sVnginx-common
p8537
g3974
sVnetbootin
p8538
g70
sVrar3
p8539
g1346
sVxserver-common
p8540
g831
sVxserver-xorg-core
p8541
g831
sVdovecot-common
p8542
g5854
sVmitm
p8543
g6388
sVripper
p8544
g3885
sVlibdvdread4
p8545
g6022
sVsysinfo
p8546
g3724
sVlibdvdread3
p8547
g6022
sVhookup
p8548
g1588
sViptraf
p8549
S'iptraf'
p8550
sVowl
p8551
S'owl'
p8552
sVbssid
p8553
g318
sVheadphone
p8554
g1808
sS'weather'
p8555
g8555
sVrysnc
p8556
g267
sVspiral
p8557
g8557
sVfbterm
p8558
S'fbterm'
p8559
sVazureus
p8560
g139
sS'var'
p8561
g8561
sVdynamite
p8562
S'dynamite'
p8563
sVx11-common
p8564
g810
sVpostgresql-common
p8565
g2538
sVlibgl1-mesa-dri
p8566
g894
sViconfig
p8567
g814
sValexc
p8568
g150
sVgvlc
p8569
g513
sVdarktable
p8570
S'darktable'
p8571
sVmutter
p8572
S'mutter'
p8573
sVrespository
p8574
g2931
sV#gparted
p8575
g1034
sVautomated
p8576
g8576
sVtaskel
p8577
g9
sVsqueeze
p8578
g1015
sV#gedit
p8579
g857
sVinitscripts
p8580
S'initscripts'
p8581
sVhunspell
p8582
S'hunspell'
p8583
sVlvm
p8584
g1498
sVcmov
p8585
g800
sS'cmos'
p8586
S'cmos'
p8587
sVphp)
p8588
g2335
sS'scrollwheel'
p8589
S'scrollwheel'
p8590
sVkrusader
p8591
S'krusader'
p8592
sVbool
p8593
g4141
sVcnetworkmanager
p8594
g3398
sVphp4
p8595
g624
sVphp5
p8596
g624
sVscim
p8597
S'scim'
p8598
sVmozila
p8599
g2374
sVgap
p8600
g3665
sg6235
g6235
sVgnome-panel`
p8601
g45
sVbalsa
p8602
g1956
sVphp5-mysqli
p8603
g624
sVgnome-panels
p8604
g45
sVvboxdrv
p8605
g370
sVepdfview
p8606
S'epdfview'
p8607
sVphps
p8608
g2335
s.